ARM GAS  C:\Users\filip\AppData\Local\Temp\cc7CJLTs.s 			page 1


   1              		.cpu cortex-m4
   2              		.eabi_attribute 27, 1
   3              		.eabi_attribute 28, 1
   4              		.eabi_attribute 20, 1
   5              		.eabi_attribute 21, 1
   6              		.eabi_attribute 23, 3
   7              		.eabi_attribute 24, 1
   8              		.eabi_attribute 25, 1
   9              		.eabi_attribute 26, 1
  10              		.eabi_attribute 30, 2
  11              		.eabi_attribute 34, 1
  12              		.eabi_attribute 18, 4
  13              		.file	"audio_processing.c"
  14              		.text
  15              	.Ltext0:
  16              		.cfi_sections	.debug_frame
  17              		.section	.text.sound_remote,"ax",%progbits
  18              		.align	1
  19              		.p2align 4,,15
  20              		.global	sound_remote
  21              		.syntax unified
  22              		.thumb
  23              		.thumb_func
  24              		.fpu fpv4-sp-d16
  25              		.type	sound_remote, %function
  26              	sound_remote:
  27              	.LFB290:
  28              		.file 1 "audio_processing.c"
  29              		.loc 1 59 0
  30              		.cfi_startproc
  31              		@ args = 0, pretend = 0, frame = 8
  32              		@ frame_needed = 0, uses_anonymous_args = 0
  33              	.LVL0:
  34 0000 00B5     		push	{lr}
  35              		.cfi_def_cfa_offset 4
  36              		.cfi_offset 14, -4
  37 0002 1D49     		ldr	r1, .L18
  38              		.loc 1 60 0
  39 0004 9FED1D7A 		vldr.32	s14, .L18+4
  40              		.loc 1 59 0
  41 0008 0B68     		ldr	r3, [r1]
  42 000a 83B0     		sub	sp, sp, #12
  43              		.cfi_def_cfa_offset 16
  44 000c 2830     		adds	r0, r0, #40
  45              	.LVL1:
  46              		.loc 1 59 0
  47 000e 0193     		str	r3, [sp, #4]
  48              	.LVL2:
  49              		.loc 1 61 0
  50 0010 4FF0FF32 		mov	r2, #-1
  51              		.loc 1 59 0
  52 0014 0A23     		movs	r3, #10
  53              	.LVL3:
  54              	.L4:
  55              	.LBB2:
  56              		.loc 1 64 0
  57 0016 F0EC017A 		vldmia.32	r0!, {s15}
ARM GAS  C:\Users\filip\AppData\Local\Temp\cc7CJLTs.s 			page 2


  58 001a F4EEC77A 		vcmpe.f32	s15, s14
  59 001e F1EE10FA 		vmrs	APSR_nzcv, FPSCR
  60              	.LVL4:
  61              		.loc 1 66 0
  62 0022 C8BF     		it	gt
  63 0024 1AB2     		sxthgt	r2, r3
  64              	.LVL5:
  65 0026 03F10103 		add	r3, r3, #1
  66              	.LVL6:
  67              		.loc 1 65 0
  68 002a C8BF     		it	gt
  69 002c B0EE677A 		vmovgt.f32	s14, s15
  70              	.LVL7:
  71              		.loc 1 63 0
  72 0030 1F2B     		cmp	r3, #31
  73 0032 F0D1     		bne	.L4
  74              	.LBE2:
  75              		.loc 1 70 0
  76 0034 92B2     		uxth	r2, r2
  77 0036 A2F10F03 		sub	r3, r2, #15
  78 003a 022B     		cmp	r3, #2
  79 003c 10D9     		bls	.L16
  80              		.loc 1 84 0
  81 003e 183A     		subs	r2, r2, #24
  82 0040 022A     		cmp	r2, #2
  83              		.loc 1 85 0
  84 0042 019A     		ldr	r2, [sp, #4]
  85 0044 0B68     		ldr	r3, [r1]
  86              		.loc 1 84 0
  87 0046 04D9     		bls	.L17
  88              		.loc 1 91 0
  89 0048 9A42     		cmp	r2, r3
  90 004a 12D1     		bne	.L14
  91 004c 03B0     		add	sp, sp, #12
  92              		.cfi_remember_state
  93              		.cfi_def_cfa_offset 4
  94              		@ sp needed
  95 004e 5DF804FB 		ldr	pc, [sp], #4
  96              	.L17:
  97              		.cfi_restore_state
  98              		.loc 1 85 0
  99 0052 9A42     		cmp	r2, r3
 100 0054 0DD1     		bne	.L14
 101              		.loc 1 91 0
 102 0056 03B0     		add	sp, sp, #12
 103              		.cfi_remember_state
 104              		.cfi_def_cfa_offset 4
 105              		@ sp needed
 106 0058 5DF804EB 		ldr	lr, [sp], #4
 107              		.cfi_restore 14
 108              		.cfi_def_cfa_offset 0
 109              		.loc 1 85 0
 110 005c FFF7FEBF 		b	stop
 111              	.LVL8:
 112              	.L16:
 113              		.cfi_restore_state
 114              		.loc 1 71 0
ARM GAS  C:\Users\filip\AppData\Local\Temp\cc7CJLTs.s 			page 3


 115 0060 019A     		ldr	r2, [sp, #4]
 116 0062 0B68     		ldr	r3, [r1]
 117 0064 9A42     		cmp	r2, r3
 118 0066 04D1     		bne	.L14
 119              		.loc 1 91 0
 120 0068 03B0     		add	sp, sp, #12
 121              		.cfi_remember_state
 122              		.cfi_def_cfa_offset 4
 123              		@ sp needed
 124 006a 5DF804EB 		ldr	lr, [sp], #4
 125              		.cfi_restore 14
 126              		.cfi_def_cfa_offset 0
 127              		.loc 1 71 0
 128 006e FFF7FEBF 		b	start
 129              	.LVL9:
 130              	.L14:
 131              		.cfi_restore_state
 132              		.loc 1 91 0
 133 0072 FFF7FEFF 		bl	__stack_chk_fail
 134              	.LVL10:
 135              	.L19:
 136 0076 00BF     		.align	2
 137              	.L18:
 138 0078 00000000 		.word	__stack_chk_guard
 139 007c 00401C46 		.word	1176256512
 140              		.cfi_endproc
 141              	.LFE290:
 142              		.size	sound_remote, .-sound_remote
 143              		.section	.text.processAudioData,"ax",%progbits
 144              		.align	1
 145              		.p2align 4,,15
 146              		.global	processAudioData
 147              		.syntax unified
 148              		.thumb
 149              		.thumb_func
 150              		.fpu fpv4-sp-d16
 151              		.type	processAudioData, %function
 152              	processAudioData:
 153              	.LFB291:
 154              		.loc 1 94 0
 155              		.cfi_startproc
 156              		@ args = 0, pretend = 0, frame = 8
 157              		@ frame_needed = 0, uses_anonymous_args = 0
 158              	.LVL11:
 159 0000 F0B5     		push	{r4, r5, r6, r7, lr}
 160              		.cfi_def_cfa_offset 20
 161              		.cfi_offset 4, -20
 162              		.cfi_offset 5, -16
 163              		.cfi_offset 6, -12
 164              		.cfi_offset 7, -8
 165              		.cfi_offset 14, -4
 166 0002 364E     		ldr	r6, .L35
 167 0004 364D     		ldr	r5, .L35+4
 168 0006 3368     		ldr	r3, [r6]
 169 0008 83B0     		sub	sp, sp, #12
 170              		.cfi_def_cfa_offset 32
 171              		.loc 1 94 0
ARM GAS  C:\Users\filip\AppData\Local\Temp\cc7CJLTs.s 			page 4


 172 000a 0193     		str	r3, [sp, #4]
 173              	.LVL12:
 174 000c 2B88     		ldrh	r3, [r5]
 175              	.LBB3:
 176              		.loc 1 99 0
 177 000e 0029     		cmp	r1, #0
 178 0010 5BD0     		beq	.L21
 179              		.loc 1 102 0
 180 0012 B0F90220 		ldrsh	r2, [r0, #2]
 181 0016 334C     		ldr	r4, .L35+8
 182 0018 07EE902A 		vmov	s15, r2	@ int
 183              		.loc 1 105 0
 184 001c 5A1C     		adds	r2, r3, #1
 185              		.loc 1 102 0
 186 001e 04EB8307 		add	r7, r4, r3, lsl #2
 187              		.loc 1 107 0
 188 0022 92B2     		uxth	r2, r2
 189              		.loc 1 110 0
 190 0024 0233     		adds	r3, r3, #2
 191 0026 9BB2     		uxth	r3, r3
 192              		.loc 1 102 0
 193 0028 F8EEE77A 		vcvt.f32.s32	s15, s15
 194              		.loc 1 107 0
 195 002c 04EB8202 		add	r2, r4, r2, lsl #2
 196 0030 4FF0000E 		mov	lr, #0
 197              		.loc 1 112 0
 198 0034 B3F5006F 		cmp	r3, #2048
 199              		.loc 1 102 0
 200 0038 C7ED007A 		vstr.32	s15, [r7]
 201              		.loc 1 110 0
 202 003c 2B80     		strh	r3, [r5]	@ movhi
 203              		.loc 1 107 0
 204 003e C2F800E0 		str	lr, [r2]	@ float
 205              		.loc 1 112 0
 206 0042 2BD2     		bcs	.L22
 207 0044 0139     		subs	r1, r1, #1
 208              	.LVL13:
 209 0046 C1F38D01 		ubfx	r1, r1, #2, #14
 210 004a 00EBC101 		add	r1, r0, r1, lsl #3
 211 004e 0027     		movs	r7, #0
 212 0050 1AE0     		b	.L23
 213              	.LVL14:
 214              	.L25:
 215              		.loc 1 102 0
 216 0052 B0F90A20 		ldrsh	r2, [r0, #10]
 217 0056 07EE902A 		vmov	s15, r2	@ int
 218              		.loc 1 107 0
 219 005a 5A1C     		adds	r2, r3, #1
 220 005c 92B2     		uxth	r2, r2
 221              		.loc 1 110 0
 222 005e 03F1020C 		add	ip, r3, #2
 223              		.loc 1 102 0
 224 0062 04EB8307 		add	r7, r4, r3, lsl #2
 225 0066 F8EEE77A 		vcvt.f32.s32	s15, s15
 226              		.loc 1 107 0
 227 006a 04EB8202 		add	r2, r4, r2, lsl #2
 228              		.loc 1 110 0
ARM GAS  C:\Users\filip\AppData\Local\Temp\cc7CJLTs.s 			page 5


 229 006e 1FFA8CF3 		uxth	r3, ip
 230              		.loc 1 112 0
 231 0072 B3F5006F 		cmp	r3, #2048
 232              		.loc 1 102 0
 233 0076 C7ED007A 		vstr.32	s15, [r7]
 234 007a 00F10800 		add	r0, r0, #8
 235 007e 4FF00107 		mov	r7, #1
 236              		.loc 1 107 0
 237 0082 C2F800E0 		str	lr, [r2]	@ float
 238              		.loc 1 112 0
 239 0086 08D2     		bcs	.L24
 240              	.L23:
 241              		.loc 1 99 0 discriminator 2
 242 0088 8842     		cmp	r0, r1
 243 008a E2D1     		bne	.L25
 244 008c 1FBB     		cbnz	r7, .L34
 245              	.L20:
 246              	.LBE3:
 247              		.loc 1 148 0
 248 008e 019A     		ldr	r2, [sp, #4]
 249 0090 3368     		ldr	r3, [r6]
 250 0092 9A42     		cmp	r2, r3
 251 0094 1DD1     		bne	.L33
 252 0096 03B0     		add	sp, sp, #12
 253              		.cfi_remember_state
 254              		.cfi_def_cfa_offset 20
 255              		@ sp needed
 256 0098 F0BD     		pop	{r4, r5, r6, r7, pc}
 257              	.L24:
 258              		.cfi_restore_state
 259 009a 2B80     		strh	r3, [r5]	@ movhi
 260              	.L22:
 261              		.loc 1 123 0
 262 009c 1149     		ldr	r1, .L35+8
 263 009e 4FF48060 		mov	r0, #1024
 264 00a2 FFF7FEFF 		bl	doFFT_optimized
 265              	.LVL15:
 266              		.loc 1 134 0
 267 00a6 4FF48062 		mov	r2, #1024
 268 00aa 0F49     		ldr	r1, .L35+12
 269 00ac 0D48     		ldr	r0, .L35+8
 270 00ae FFF7FEFF 		bl	arm_cmplx_mag_f32
 271              	.LVL16:
 272              		.loc 1 146 0
 273 00b2 019A     		ldr	r2, [sp, #4]
 274 00b4 3368     		ldr	r3, [r6]
 275              		.loc 1 144 0
 276 00b6 0021     		movs	r1, #0
 277              		.loc 1 146 0
 278 00b8 9A42     		cmp	r2, r3
 279              		.loc 1 144 0
 280 00ba 2980     		strh	r1, [r5]	@ movhi
 281              		.loc 1 146 0
 282 00bc 09D1     		bne	.L33
 283 00be 0A48     		ldr	r0, .L35+12
 284              		.loc 1 148 0
 285 00c0 03B0     		add	sp, sp, #12
ARM GAS  C:\Users\filip\AppData\Local\Temp\cc7CJLTs.s 			page 6


 286              		.cfi_remember_state
 287              		.cfi_def_cfa_offset 20
 288              		@ sp needed
 289 00c2 BDE8F040 		pop	{r4, r5, r6, r7, lr}
 290              		.cfi_restore 14
 291              		.cfi_restore 7
 292              		.cfi_restore 6
 293              		.cfi_restore 5
 294              		.cfi_restore 4
 295              		.cfi_def_cfa_offset 0
 296              		.loc 1 146 0
 297 00c6 FFF7FEBF 		b	sound_remote
 298              	.LVL17:
 299              	.L21:
 300              		.cfi_restore_state
 301              		.loc 1 116 0
 302 00ca B3F5006F 		cmp	r3, #2048
 303 00ce DED3     		bcc	.L20
 304 00d0 E4E7     		b	.L22
 305              	.LVL18:
 306              	.L33:
 307              		.loc 1 148 0
 308 00d2 FFF7FEFF 		bl	__stack_chk_fail
 309              	.LVL19:
 310              	.L34:
 311 00d6 2B80     		strh	r3, [r5]	@ movhi
 312 00d8 D9E7     		b	.L20
 313              	.L36:
 314 00da 00BF     		.align	2
 315              	.L35:
 316 00dc 00000000 		.word	__stack_chk_guard
 317 00e0 00000000 		.word	.LANCHOR0
 318 00e4 00000000 		.word	micLeft_cmplx_input
 319 00e8 00000000 		.word	micLeft_output
 320              		.cfi_endproc
 321              	.LFE291:
 322              		.size	processAudioData, .-processAudioData
 323              		.section	.text.get_audio_buffer_ptr,"ax",%progbits
 324              		.align	1
 325              		.p2align 4,,15
 326              		.global	get_audio_buffer_ptr
 327              		.syntax unified
 328              		.thumb
 329              		.thumb_func
 330              		.fpu fpv4-sp-d16
 331              		.type	get_audio_buffer_ptr, %function
 332              	get_audio_buffer_ptr:
 333              	.LFB292:
 334              		.loc 1 165 0
 335              		.cfi_startproc
 336              		@ args = 0, pretend = 0, frame = 8
 337              		@ frame_needed = 0, uses_anonymous_args = 0
 338              	.LVL20:
 339 0000 00B5     		push	{lr}
 340              		.cfi_def_cfa_offset 4
 341              		.cfi_offset 14, -4
 342 0002 164B     		ldr	r3, .L50
ARM GAS  C:\Users\filip\AppData\Local\Temp\cc7CJLTs.s 			page 7


 343 0004 83B0     		sub	sp, sp, #12
 344              		.cfi_def_cfa_offset 16
 345              		.loc 1 165 0
 346 0006 1A68     		ldr	r2, [r3]
 347 0008 0192     		str	r2, [sp, #4]
 348              		.loc 1 166 0
 349 000a 88B1     		cbz	r0, .L40
 350              		.loc 1 169 0
 351 000c 0128     		cmp	r0, #1
 352 000e 17D0     		beq	.L41
 353              		.loc 1 172 0
 354 0010 0228     		cmp	r0, #2
 355 0012 19D0     		beq	.L42
 356              		.loc 1 175 0
 357 0014 0328     		cmp	r0, #3
 358 0016 15D0     		beq	.L43
 359              		.loc 1 178 0
 360 0018 0428     		cmp	r0, #4
 361 001a 17D0     		beq	.L44
 362              		.loc 1 181 0
 363 001c 0528     		cmp	r0, #5
 364 001e 17D0     		beq	.L45
 365              		.loc 1 184 0
 366 0020 0628     		cmp	r0, #6
 367 0022 17D0     		beq	.L46
 368              		.loc 1 191 0
 369 0024 0E4A     		ldr	r2, .L50+4
 370              		.loc 1 187 0
 371 0026 0728     		cmp	r0, #7
 372              		.loc 1 191 0
 373 0028 0CBF     		ite	eq
 374 002a 1046     		moveq	r0, r2
 375              	.LVL21:
 376 002c 0020     		movne	r0, #0
 377 002e 00E0     		b	.L37
 378              	.LVL22:
 379              	.L40:
 380              		.loc 1 167 0
 381 0030 0C48     		ldr	r0, .L50+8
 382              	.LVL23:
 383              	.L37:
 384              		.loc 1 193 0
 385 0032 019A     		ldr	r2, [sp, #4]
 386 0034 1B68     		ldr	r3, [r3]
 387 0036 9A42     		cmp	r2, r3
 388 0038 0ED1     		bne	.L49
 389 003a 03B0     		add	sp, sp, #12
 390              		.cfi_remember_state
 391              		.cfi_def_cfa_offset 4
 392              		@ sp needed
 393 003c 5DF804FB 		ldr	pc, [sp], #4
 394              	.LVL24:
 395              	.L41:
 396              		.cfi_restore_state
 397              		.loc 1 170 0
 398 0040 0948     		ldr	r0, .L50+12
 399              	.LVL25:
ARM GAS  C:\Users\filip\AppData\Local\Temp\cc7CJLTs.s 			page 8


 400 0042 F6E7     		b	.L37
 401              	.LVL26:
 402              	.L43:
 403              		.loc 1 176 0
 404 0044 0948     		ldr	r0, .L50+16
 405              	.LVL27:
 406 0046 F4E7     		b	.L37
 407              	.LVL28:
 408              	.L42:
 409              		.loc 1 173 0
 410 0048 0948     		ldr	r0, .L50+20
 411              	.LVL29:
 412 004a F2E7     		b	.L37
 413              	.LVL30:
 414              	.L44:
 415              		.loc 1 179 0
 416 004c 0948     		ldr	r0, .L50+24
 417              	.LVL31:
 418 004e F0E7     		b	.L37
 419              	.LVL32:
 420              	.L45:
 421              		.loc 1 182 0
 422 0050 0948     		ldr	r0, .L50+28
 423              	.LVL33:
 424 0052 EEE7     		b	.L37
 425              	.LVL34:
 426              	.L46:
 427              		.loc 1 185 0
 428 0054 0948     		ldr	r0, .L50+32
 429              	.LVL35:
 430 0056 ECE7     		b	.L37
 431              	.L49:
 432              		.loc 1 193 0
 433 0058 FFF7FEFF 		bl	__stack_chk_fail
 434              	.LVL36:
 435              	.L51:
 436              		.align	2
 437              	.L50:
 438 005c 00000000 		.word	__stack_chk_guard
 439 0060 00000000 		.word	micBack_output
 440 0064 00000000 		.word	micLeft_cmplx_input
 441 0068 00000000 		.word	micRight_cmplx_input
 442 006c 00000000 		.word	micBack_cmplx_input
 443 0070 00000000 		.word	micFront_cmplx_input
 444 0074 00000000 		.word	micLeft_output
 445 0078 00000000 		.word	micRight_output
 446 007c 00000000 		.word	micFront_output
 447              		.cfi_endproc
 448              	.LFE292:
 449              		.size	get_audio_buffer_ptr, .-get_audio_buffer_ptr
 450              		.section	.bss.micBack_cmplx_input,"aw",%nobits
 451              		.align	2
 452              		.type	micBack_cmplx_input, %object
 453              		.size	micBack_cmplx_input, 8192
 454              	micBack_cmplx_input:
 455 0000 00000000 		.space	8192
 455      00000000 
ARM GAS  C:\Users\filip\AppData\Local\Temp\cc7CJLTs.s 			page 9


 455      00000000 
 455      00000000 
 455      00000000 
 456              		.section	.bss.micBack_output,"aw",%nobits
 457              		.align	2
 458              		.type	micBack_output, %object
 459              		.size	micBack_output, 4096
 460              	micBack_output:
 461 0000 00000000 		.space	4096
 461      00000000 
 461      00000000 
 461      00000000 
 461      00000000 
 462              		.section	.bss.micFront_cmplx_input,"aw",%nobits
 463              		.align	2
 464              		.type	micFront_cmplx_input, %object
 465              		.size	micFront_cmplx_input, 8192
 466              	micFront_cmplx_input:
 467 0000 00000000 		.space	8192
 467      00000000 
 467      00000000 
 467      00000000 
 467      00000000 
 468              		.section	.bss.micFront_output,"aw",%nobits
 469              		.align	2
 470              		.type	micFront_output, %object
 471              		.size	micFront_output, 4096
 472              	micFront_output:
 473 0000 00000000 		.space	4096
 473      00000000 
 473      00000000 
 473      00000000 
 473      00000000 
 474              		.section	.bss.micLeft_cmplx_input,"aw",%nobits
 475              		.align	2
 476              		.type	micLeft_cmplx_input, %object
 477              		.size	micLeft_cmplx_input, 8192
 478              	micLeft_cmplx_input:
 479 0000 00000000 		.space	8192
 479      00000000 
 479      00000000 
 479      00000000 
 479      00000000 
 480              		.section	.bss.micLeft_output,"aw",%nobits
 481              		.align	2
 482              		.type	micLeft_output, %object
 483              		.size	micLeft_output, 4096
 484              	micLeft_output:
 485 0000 00000000 		.space	4096
 485      00000000 
 485      00000000 
 485      00000000 
 485      00000000 
 486              		.section	.bss.micRight_cmplx_input,"aw",%nobits
 487              		.align	2
 488              		.type	micRight_cmplx_input, %object
 489              		.size	micRight_cmplx_input, 8192
ARM GAS  C:\Users\filip\AppData\Local\Temp\cc7CJLTs.s 			page 10


 490              	micRight_cmplx_input:
 491 0000 00000000 		.space	8192
 491      00000000 
 491      00000000 
 491      00000000 
 491      00000000 
 492              		.section	.bss.micRight_output,"aw",%nobits
 493              		.align	2
 494              		.type	micRight_output, %object
 495              		.size	micRight_output, 4096
 496              	micRight_output:
 497 0000 00000000 		.space	4096
 497      00000000 
 497      00000000 
 497      00000000 
 497      00000000 
 498              		.section	.bss.nb_samples.14186,"aw",%nobits
 499              		.align	1
 500              		.set	.LANCHOR0,. + 0
 501              		.type	nb_samples.14186, %object
 502              		.size	nb_samples.14186, 2
 503              	nb_samples.14186:
 504 0000 0000     		.space	2
 505              		.text
 506              	.Letext0:
 507              		.file 2 "c:\\users\\filip\\onedrive\\bureau\\eclipse_e-puck2\\tools\\gcc-arm-none-eabi-7-2017-q4-m
 508              		.file 3 "c:\\users\\filip\\onedrive\\bureau\\eclipse_e-puck2\\tools\\gcc-arm-none-eabi-7-2017-q4-m
 509              		.file 4 "c:\\users\\filip\\onedrive\\bureau\\eclipse_e-puck2\\tools\\gcc-arm-none-eabi-7-2017-q4-m
 510              		.file 5 "../../lib/e-puck2_main-processor/ChibiOS//os/rt/ports/ARMCMx/compilers/GCC/chtypes.h"
 511              		.file 6 "../../lib/e-puck2_main-processor/ChibiOS//os/rt/include/chsystypes.h"
 512              		.file 7 "../../lib/e-puck2_main-processor/ChibiOS//os/rt/include/chschd.h"
 513              		.file 8 "../../lib/e-puck2_main-processor/ChibiOS//os/ext/CMSIS/include/core_cm4.h"
 514              		.file 9 "../../lib/e-puck2_main-processor/ChibiOS//os/ext/CMSIS/ST/system_stm32f4xx.h"
 515              		.file 10 "../../lib/e-puck2_main-processor/ChibiOS//os/ext/CMSIS/ST/stm32f407xx.h"
 516              		.file 11 "../../lib/e-puck2_main-processor/ChibiOS//os/rt/ports/ARMCMx/chcore.h"
 517              		.file 12 "../../lib/e-puck2_main-processor/ChibiOS//os/rt/ports/ARMCMx/chcore_v7m.h"
 518              		.file 13 "../../lib/e-puck2_main-processor/ChibiOS//os/rt/include/chdebug.h"
 519              		.file 14 "../../lib/e-puck2_main-processor/ChibiOS//os/rt/include/chtm.h"
 520              		.file 15 "../../lib/e-puck2_main-processor/ChibiOS//os/rt/include/chstats.h"
 521              		.file 16 "../../lib/e-puck2_main-processor/ChibiOS//os/rt/include/chsem.h"
 522              		.file 17 "../../lib/e-puck2_main-processor/ChibiOS//os/rt/include/chmtx.h"
 523              		.file 18 "../../lib/e-puck2_main-processor/ChibiOS//os/rt/include/chregistry.h"
 524              		.file 19 "../../lib/e-puck2_main-processor/ChibiOS//os/rt/include/chbsem.h"
 525              		.file 20 "../../lib/e-puck2_main-processor/ChibiOS//os/rt/include/chevents.h"
 526              		.file 21 "../../lib/e-puck2_main-processor/ChibiOS//os/rt/include/chqueues.h"
 527              		.file 22 "../../lib/e-puck2_main-processor/ChibiOS//os/hal/ports/STM32/STM32F4xx/stm32_dma.h"
 528              		.file 23 "../../lib/e-puck2_main-processor/ChibiOS//os/hal/include/hal_ioblock.h"
 529              		.file 24 "../../lib/e-puck2_main-processor/ChibiOS//os/hal/ports/STM32/LLD/GPIOv2/pal_lld.h"
 530              		.file 25 "../../lib/e-puck2_main-processor/ChibiOS//os/hal/include/adc.h"
 531              		.file 26 "../../lib/e-puck2_main-processor/ChibiOS//os/hal/ports/STM32/STM32F4xx/adc_lld.h"
 532              		.file 27 "../../lib/e-puck2_main-processor/ChibiOS//os/hal/include/can.h"
 533              		.file 28 "../../lib/e-puck2_main-processor/ChibiOS//os/hal/ports/STM32/LLD/can_lld.h"
 534              		.file 29 "../../lib/e-puck2_main-processor/ChibiOS//os/hal/include/dac.h"
 535              		.file 30 "../../lib/e-puck2_main-processor/ChibiOS//os/hal/ports/STM32/LLD/DACv1/dac_lld.h"
 536              		.file 31 "../../lib/e-puck2_main-processor/ChibiOS//os/hal/include/ext.h"
 537              		.file 32 "../../lib/e-puck2_main-processor/ChibiOS//os/hal/ports/STM32/LLD/ext_lld.h"
 538              		.file 33 "../../lib/e-puck2_main-processor/ChibiOS//os/hal/include/gpt.h"
ARM GAS  C:\Users\filip\AppData\Local\Temp\cc7CJLTs.s 			page 11


 539              		.file 34 "../../lib/e-puck2_main-processor/ChibiOS//os/hal/ports/STM32/LLD/TIMv1/gpt_lld.h"
 540              		.file 35 "../../lib/e-puck2_main-processor/ChibiOS//os/hal/ports/STM32/LLD/TIMv1/stm32_tim.h"
 541              		.file 36 "../../lib/e-puck2_main-processor/ChibiOS//os/hal/include/i2c.h"
 542              		.file 37 "../../lib/e-puck2_main-processor/ChibiOS//os/hal/ports/STM32/LLD/I2Cv1/i2c_lld.h"
 543              		.file 38 "../../lib/e-puck2_main-processor/ChibiOS//os/hal/include/i2s.h"
 544              		.file 39 "../../lib/e-puck2_main-processor/ChibiOS//os/hal/ports/STM32/LLD/SPIv1/i2s_lld.h"
 545              		.file 40 "../../lib/e-puck2_main-processor/ChibiOS//os/hal/include/pwm.h"
 546              		.file 41 "../../lib/e-puck2_main-processor/ChibiOS//os/hal/ports/STM32/LLD/TIMv1/pwm_lld.h"
 547              		.file 42 "../../lib/e-puck2_main-processor/ChibiOS//os/hal/include/serial.h"
 548              		.file 43 "../../lib/e-puck2_main-processor/ChibiOS//os/hal/ports/STM32/LLD/USARTv1/serial_lld.h"
 549              		.file 44 "../../lib/e-puck2_main-processor/ChibiOS//os/hal/include/sdc.h"
 550              		.file 45 "../../lib/e-puck2_main-processor/ChibiOS//os/hal/ports/STM32/LLD/sdc_lld.h"
 551              		.file 46 "../../lib/e-puck2_main-processor/ChibiOS//os/hal/include/spi.h"
 552              		.file 47 "../../lib/e-puck2_main-processor/ChibiOS//os/hal/ports/STM32/LLD/SPIv1/spi_lld.h"
 553              		.file 48 "../../lib/e-puck2_main-processor/ChibiOS//os/hal/include/usb.h"
 554              		.file 49 "../../lib/e-puck2_main-processor/ChibiOS//os/hal/ports/STM32/LLD/OTGv1/usb_lld.h"
 555              		.file 50 "../../lib/e-puck2_main-processor/ChibiOS//os/hal/ports/STM32/LLD/OTGv1/stm32_otg.h"
 556              		.file 51 "../../lib/e-puck2_main-processor/ChibiOS//os/hal/include/serial_usb.h"
 557              		.file 52 "../../lib/e-puck2_main-processor/ChibiOS_ext/os/hal/include/../ports/STM32/STM32F4xx/dcm
 558              		.file 53 "c:\\users\\filip\\onedrive\\bureau\\eclipse_e-puck2\\tools\\gcc-arm-none-eabi-7-2017-q4-
 559              		.file 54 "c:\\users\\filip\\onedrive\\bureau\\eclipse_e-puck2\\tools\\gcc-arm-none-eabi-7-2017-q4-
 560              		.file 55 "c:\\users\\filip\\onedrive\\bureau\\eclipse_e-puck2\\tools\\gcc-arm-none-eabi-7-2017-q4-
 561              		.file 56 "../../lib/e-puck2_main-processor/src/msgbus/messagebus.h"
 562              		.file 57 "c:\\users\\filip\\onedrive\\bureau\\eclipse_e-puck2\\tools\\gcc-arm-none-eabi-7-2017-q4-
 563              		.file 58 "c:\\users\\filip\\onedrive\\bureau\\eclipse_e-puck2\\tools\\gcc-arm-none-eabi-7-2017-q4-
 564              		.file 59 "../../lib/e-puck2_main-processor/src/parameter/parameter.h"
 565              		.file 60 "./main.h"
 566              		.file 61 "../../lib/e-puck2_main-processor/src/usbcfg.h"
 567              		.file 62 "./audio_processing.h"
 568              		.file 63 "c:\\users\\filip\\onedrive\\bureau\\eclipse_e-puck2\\tools\\gcc-arm-none-eabi-7-2017-q4-
 569              		.file 64 "./fft.h"
 570              		.file 65 "../../lib/e-puck2_main-processor/ChibiOS//os/ext/CMSIS/include/arm_math.h"
 571              		.file 66 "./motor.h"