ARM GAS  C:\Users\filip\AppData\Local\Temp\ccUkPDFm.s 			page 1


   1              		.cpu cortex-m4
   2              		.eabi_attribute 27, 1
   3              		.eabi_attribute 28, 1
   4              		.eabi_attribute 20, 1
   5              		.eabi_attribute 21, 1
   6              		.eabi_attribute 23, 3
   7              		.eabi_attribute 24, 1
   8              		.eabi_attribute 25, 1
   9              		.eabi_attribute 26, 1
  10              		.eabi_attribute 30, 2
  11              		.eabi_attribute 34, 1
  12              		.eabi_attribute 18, 4
  13              		.file	"audio_processing.c"
  14              		.text
  15              	.Ltext0:
  16              		.cfi_sections	.debug_frame
  17              		.section	.text.triangulation,"ax",%progbits
  18              		.align	1
  19              		.p2align 4,,15
  20              		.global	triangulation
  21              		.syntax unified
  22              		.thumb
  23              		.thumb_func
  24              		.fpu fpv4-sp-d16
  25              		.type	triangulation, %function
  26              	triangulation:
  27              	.LFB291:
  28              		.file 1 "audio_processing.c"
  29              		.loc 1 95 0
  30              		.cfi_startproc
  31              		@ args = 0, pretend = 0, frame = 8
  32              		@ frame_needed = 0, uses_anonymous_args = 0
  33              	.LVL0:
  34 0000 30B5     		push	{r4, r5, lr}
  35              		.cfi_def_cfa_offset 12
  36              		.cfi_offset 4, -12
  37              		.cfi_offset 5, -8
  38              		.cfi_offset 14, -4
  39 0002 2DED028B 		vpush.64	{d8}
  40              		.cfi_def_cfa_offset 20
  41              		.cfi_offset 80, -20
  42              		.cfi_offset 81, -16
  43              		.loc 1 96 0
  44 0006 1C4B     		ldr	r3, .L13
  45              		.loc 1 95 0
  46 0008 1C4C     		ldr	r4, .L13+4
  47              		.loc 1 96 0
  48 000a 03EBC002 		add	r2, r3, r0, lsl #3
  49              		.loc 1 95 0
  50 000e 83B0     		sub	sp, sp, #12
  51              		.cfi_def_cfa_offset 32
  52              		.loc 1 96 0
  53 0010 D2ED000A 		vldr.32	s1, [r2]
  54              		.loc 1 95 0
  55 0014 2368     		ldr	r3, [r4]
  56              		.loc 1 96 0
  57 0016 92ED010A 		vldr.32	s0, [r2, #4]
ARM GAS  C:\Users\filip\AppData\Local\Temp\ccUkPDFm.s 			page 2


  58              		.loc 1 95 0
  59 001a 0193     		str	r3, [sp, #4]
  60 001c 0D46     		mov	r5, r1
  61              		.loc 1 96 0
  62 001e FFF7FEFF 		bl	atan2f
  63              	.LVL1:
  64              		.loc 1 97 0
  65 0022 174B     		ldr	r3, .L13+8
  66 0024 03EBC502 		add	r2, r3, r5, lsl #3
  67              		.loc 1 96 0
  68 0028 B0EE408A 		vmov.f32	s16, s0
  69              	.LVL2:
  70              		.loc 1 97 0
  71 002c D2ED000A 		vldr.32	s1, [r2]
  72 0030 92ED010A 		vldr.32	s0, [r2, #4]
  73              	.LVL3:
  74 0034 FFF7FEFF 		bl	atan2f
  75              	.LVL4:
  76              		.loc 1 98 0
  77 0038 30EE480A 		vsub.f32	s0, s0, s16
  78              	.LVL5:
  79              		.loc 1 100 0
  80 003c FFEE007A 		vmov.f32	s15, #-1.0e+0
  81 0040 B4EEE70A 		vcmpe.f32	s0, s15
  82 0044 F1EE10FA 		vmrs	APSR_nzcv, FPSCR
  83 0048 06DD     		ble	.L2
  84              		.loc 1 100 0 is_stmt 0 discriminator 1
  85 004a F7EE007A 		vmov.f32	s15, #1.0e+0
  86 004e B4EEE70A 		vcmpe.f32	s0, s15
  87 0052 F1EE10FA 		vmrs	APSR_nzcv, FPSCR
  88 0056 0AD4     		bmi	.L11
  89              	.LVL6:
  90              	.L2:
  91              		.loc 1 103 0 is_stmt 1
  92 0058 019A     		ldr	r2, [sp, #4]
  93 005a 2368     		ldr	r3, [r4]
  94 005c 9A42     		cmp	r2, r3
  95 005e 09D1     		bne	.L12
  96              		.loc 1 104 0
  97 0060 03B0     		add	sp, sp, #12
  98              		.cfi_remember_state
  99              		.cfi_def_cfa_offset 20
 100              		@ sp needed
 101 0062 BDEC028B 		vldm	sp!, {d8}
 102              		.cfi_restore 80
 103              		.cfi_restore 81
 104              		.cfi_def_cfa_offset 12
 105              	.LVL7:
 106 0066 BDE83040 		pop	{r4, r5, lr}
 107              		.cfi_restore 14
 108              		.cfi_restore 5
 109              		.cfi_restore 4
 110              		.cfi_def_cfa_offset 0
 111              	.LVL8:
 112              		.loc 1 103 0
 113 006a FFF7FEBF 		b	go_forward
 114              	.LVL9:
ARM GAS  C:\Users\filip\AppData\Local\Temp\ccUkPDFm.s 			page 3


 115              	.L11:
 116              		.cfi_restore_state
 117              		.loc 1 101 0
 118 006e FFF7FEFF 		bl	turn_angle
 119              	.LVL10:
 120 0072 F1E7     		b	.L2
 121              	.L12:
 122              		.loc 1 103 0
 123 0074 FFF7FEFF 		bl	__stack_chk_fail
 124              	.LVL11:
 125              	.L14:
 126              		.align	2
 127              	.L13:
 128 0078 00000000 		.word	micLeft_cmplx_input
 129 007c 00000000 		.word	__stack_chk_guard
 130 0080 00000000 		.word	micRight_cmplx_input
 131              		.cfi_endproc
 132              	.LFE291:
 133              		.size	triangulation, .-triangulation
 134              		.section	.text.sound_remote,"ax",%progbits
 135              		.align	1
 136              		.p2align 4,,15
 137              		.global	sound_remote
 138              		.syntax unified
 139              		.thumb
 140              		.thumb_func
 141              		.fpu fpv4-sp-d16
 142              		.type	sound_remote, %function
 143              	sound_remote:
 144              	.LFB290:
 145              		.loc 1 54 0
 146              		.cfi_startproc
 147              		@ args = 0, pretend = 0, frame = 8
 148              		@ frame_needed = 0, uses_anonymous_args = 0
 149              	.LVL12:
 150 0000 F0B5     		push	{r4, r5, r6, r7, lr}
 151              		.cfi_def_cfa_offset 20
 152              		.cfi_offset 4, -20
 153              		.cfi_offset 5, -16
 154              		.cfi_offset 6, -12
 155              		.cfi_offset 7, -8
 156              		.cfi_offset 14, -4
 157 0002 374F     		ldr	r7, .L37
 158              		.loc 1 56 0
 159 0004 9FED377A 		vldr.32	s14, .L37+4
 160              		.loc 1 54 0
 161 0008 3B68     		ldr	r3, [r7]
 162 000a 83B0     		sub	sp, sp, #12
 163              		.cfi_def_cfa_offset 32
 164              		.loc 1 58 0
 165 000c 4FF0FF35 		mov	r5, #-1
 166              		.loc 1 54 0
 167 0010 0193     		str	r3, [sp, #4]
 168              	.LVL13:
 169              		.loc 1 55 0
 170 0012 F0EE476A 		vmov.f32	s13, s14
 171 0016 F030     		adds	r0, r0, #240
ARM GAS  C:\Users\filip\AppData\Local\Temp\ccUkPDFm.s 			page 4


 172              	.LVL14:
 173 0018 F031     		adds	r1, r1, #240
 174              	.LVL15:
 175              		.loc 1 57 0
 176 001a 2C46     		mov	r4, r5
 177              		.loc 1 54 0
 178 001c 3C23     		movs	r3, #60
 179              	.LVL16:
 180              	.L20:
 181              	.LBB7:
 182              		.loc 1 61 0
 183 001e F0EC017A 		vldmia.32	r0!, {s15}
 184 0022 F4EEE67A 		vcmpe.f32	s15, s13
 185 0026 F1EE10FA 		vmrs	APSR_nzcv, FPSCR
 186              	.LVL17:
 187              		.loc 1 62 0
 188 002a C8BF     		it	gt
 189 002c F0EE676A 		vmovgt.f32	s13, s15
 190              		.loc 1 65 0
 191 0030 F1EC017A 		vldmia.32	r1!, {s15}
 192              	.LVL18:
 193 0034 F4EEC77A 		vcmpe.f32	s15, s14
 194              		.loc 1 63 0
 195 0038 C8BF     		it	gt
 196 003a 1CB2     		sxthgt	r4, r3
 197              	.LVL19:
 198              		.loc 1 65 0
 199 003c F1EE10FA 		vmrs	APSR_nzcv, FPSCR
 200              	.LVL20:
 201              		.loc 1 67 0
 202 0040 C8BF     		it	gt
 203 0042 1DB2     		sxthgt	r5, r3
 204              	.LVL21:
 205 0044 03F10103 		add	r3, r3, #1
 206              	.LVL22:
 207              		.loc 1 66 0
 208 0048 C8BF     		it	gt
 209 004a B0EE677A 		vmovgt.f32	s14, s15
 210              	.LVL23:
 211              		.loc 1 60 0
 212 004e 652B     		cmp	r3, #101
 213 0050 E5D1     		bne	.L20
 214              	.LBE7:
 215              		.loc 1 71 0
 216 0052 A6B2     		uxth	r6, r4
 217 0054 A6F13D03 		sub	r3, r6, #61
 218 0058 012B     		cmp	r3, #1
 219 005a 13D9     		bls	.L34
 220              	.LVL24:
 221              	.L21:
 222              		.loc 1 77 0
 223 005c A6F14303 		sub	r3, r6, #67
 224 0060 012B     		cmp	r3, #1
 225 0062 02D8     		bhi	.L22
 226              		.loc 1 78 0
 227 0064 204B     		ldr	r3, .L37+8
 228 0066 0122     		movs	r2, #1
ARM GAS  C:\Users\filip\AppData\Local\Temp\ccUkPDFm.s 			page 5


 229 0068 1A70     		strb	r2, [r3]
 230              	.L22:
 231              		.loc 1 81 0
 232 006a A6F15403 		sub	r3, r6, #84
 233 006e 012B     		cmp	r3, #1
 234 0070 1FD9     		bls	.L35
 235              		.loc 1 88 0
 236 0072 5F3E     		subs	r6, r6, #95
 237 0074 012E     		cmp	r6, #1
 238 0076 0ED9     		bls	.L36
 239              		.loc 1 93 0
 240 0078 019A     		ldr	r2, [sp, #4]
 241 007a 3B68     		ldr	r3, [r7]
 242 007c 9A42     		cmp	r2, r3
 243 007e 2CD1     		bne	.L33
 244 0080 03B0     		add	sp, sp, #12
 245              		.cfi_remember_state
 246              		.cfi_def_cfa_offset 20
 247              		@ sp needed
 248 0082 F0BD     		pop	{r4, r5, r6, r7, pc}
 249              	.LVL25:
 250              	.L34:
 251              		.cfi_restore_state
 252              		.loc 1 72 0
 253 0084 FFF7FEFF 		bl	start
 254              	.LVL26:
 255              		.loc 1 73 0
 256 0088 184A     		ldr	r2, .L37+12
 257              		.loc 1 74 0
 258 008a 174B     		ldr	r3, .L37+8
 259              		.loc 1 73 0
 260 008c 0121     		movs	r1, #1
 261 008e 1170     		strb	r1, [r2]
 262              		.loc 1 74 0
 263 0090 0022     		movs	r2, #0
 264 0092 1A70     		strb	r2, [r3]
 265 0094 E2E7     		b	.L21
 266              	.L36:
 267              	.LVL27:
 268              	.LBB8:
 269              	.LBB9:
 270              		.loc 1 91 0
 271 0096 0199     		ldr	r1, [sp, #4]
 272 0098 3A68     		ldr	r2, [r7]
 273              		.loc 1 89 0
 274 009a 144C     		ldr	r4, .L37+12
 275              		.loc 1 90 0
 276 009c 1248     		ldr	r0, .L37+8
 277              		.loc 1 89 0
 278 009e 0023     		movs	r3, #0
 279              		.loc 1 91 0
 280 00a0 9142     		cmp	r1, r2
 281              		.loc 1 89 0
 282 00a2 2370     		strb	r3, [r4]
 283              		.loc 1 90 0
 284 00a4 0370     		strb	r3, [r0]
 285              		.loc 1 91 0
ARM GAS  C:\Users\filip\AppData\Local\Temp\ccUkPDFm.s 			page 6


 286 00a6 18D1     		bne	.L33
 287              	.LBE9:
 288              	.LBE8:
 289              		.loc 1 93 0
 290 00a8 03B0     		add	sp, sp, #12
 291              		.cfi_remember_state
 292              		.cfi_def_cfa_offset 20
 293              		@ sp needed
 294 00aa BDE8F040 		pop	{r4, r5, r6, r7, lr}
 295              		.cfi_restore 14
 296              		.cfi_restore 7
 297              		.cfi_restore 6
 298              		.cfi_restore 5
 299              		.cfi_restore 4
 300              		.cfi_def_cfa_offset 0
 301              	.LBB11:
 302              	.LBB10:
 303              		.loc 1 91 0
 304 00ae FFF7FEBF 		b	stop
 305              	.LVL28:
 306              	.L35:
 307              		.cfi_restore_state
 308              	.LBE10:
 309              	.LBE11:
 310              		.loc 1 82 0
 311 00b2 4FF47A70 		mov	r0, #1000
 312 00b6 FFF7FEFF 		bl	chThdSleep
 313              	.LVL29:
 314              		.loc 1 85 0
 315 00ba 0199     		ldr	r1, [sp, #4]
 316 00bc 3A68     		ldr	r2, [r7]
 317              		.loc 1 83 0
 318 00be 0B4E     		ldr	r6, .L37+12
 319              		.loc 1 84 0
 320 00c0 0948     		ldr	r0, .L37+8
 321              		.loc 1 83 0
 322 00c2 0023     		movs	r3, #0
 323              		.loc 1 85 0
 324 00c4 9142     		cmp	r1, r2
 325              		.loc 1 83 0
 326 00c6 3370     		strb	r3, [r6]
 327              		.loc 1 84 0
 328 00c8 0370     		strb	r3, [r0]
 329              		.loc 1 85 0
 330 00ca 06D1     		bne	.L33
 331 00cc 2946     		mov	r1, r5
 332 00ce 2046     		mov	r0, r4
 333              		.loc 1 93 0
 334 00d0 03B0     		add	sp, sp, #12
 335              		.cfi_remember_state
 336              		.cfi_def_cfa_offset 20
 337              		@ sp needed
 338 00d2 BDE8F040 		pop	{r4, r5, r6, r7, lr}
 339              		.cfi_restore 14
 340              		.cfi_restore 7
 341              		.cfi_restore 6
 342              		.cfi_restore 5
ARM GAS  C:\Users\filip\AppData\Local\Temp\ccUkPDFm.s 			page 7


 343              		.cfi_restore 4
 344              		.cfi_def_cfa_offset 0
 345              		.loc 1 85 0
 346 00d6 FFF7FEBF 		b	triangulation
 347              	.LVL30:
 348              	.L33:
 349              		.cfi_restore_state
 350              		.loc 1 93 0
 351 00da FFF7FEFF 		bl	__stack_chk_fail
 352              	.LVL31:
 353              	.L38:
 354 00de 00BF     		.align	2
 355              	.L37:
 356 00e0 00000000 		.word	__stack_chk_guard
 357 00e4 00401C46 		.word	1176256512
 358 00e8 00000000 		.word	.LANCHOR1
 359 00ec 00000000 		.word	.LANCHOR0
 360              		.cfi_endproc
 361              	.LFE290:
 362              		.size	sound_remote, .-sound_remote
 363              		.section	.text.processAudioData,"ax",%progbits
 364              		.align	1
 365              		.p2align 4,,15
 366              		.global	processAudioData
 367              		.syntax unified
 368              		.thumb
 369              		.thumb_func
 370              		.fpu fpv4-sp-d16
 371              		.type	processAudioData, %function
 372              	processAudioData:
 373              	.LFB292:
 374              		.loc 1 106 0
 375              		.cfi_startproc
 376              		@ args = 0, pretend = 0, frame = 8
 377              		@ frame_needed = 0, uses_anonymous_args = 0
 378              	.LVL32:
 379 0000 2DE9F043 		push	{r4, r5, r6, r7, r8, r9, lr}
 380              		.cfi_def_cfa_offset 28
 381              		.cfi_offset 4, -28
 382              		.cfi_offset 5, -24
 383              		.cfi_offset 6, -20
 384              		.cfi_offset 7, -16
 385              		.cfi_offset 8, -12
 386              		.cfi_offset 9, -8
 387              		.cfi_offset 14, -4
 388 0004 354E     		ldr	r6, .L51
 389 0006 364F     		ldr	r7, .L51+4
 390 0008 3368     		ldr	r3, [r6]
 391 000a 3A88     		ldrh	r2, [r7]
 392 000c 83B0     		sub	sp, sp, #12
 393              		.cfi_def_cfa_offset 40
 394              		.loc 1 106 0
 395 000e 0193     		str	r3, [sp, #4]
 396              	.LVL33:
 397              	.LBB12:
 398              		.loc 1 110 0
 399 0010 0029     		cmp	r1, #0
ARM GAS  C:\Users\filip\AppData\Local\Temp\ccUkPDFm.s 			page 8


 400 0012 54D0     		beq	.L40
 401 0014 DFF8CCE0 		ldr	lr, .L51+8
 402 0018 DFF8CCC0 		ldr	ip, .L51+12
 403              		.loc 1 115 0
 404 001c 4FF00008 		mov	r8, #0
 405              		.loc 1 110 0
 406 0020 0024     		movs	r4, #0
 407 0022 03E0     		b	.L43
 408              	.LVL34:
 409              	.L41:
 410              		.loc 1 110 0 is_stmt 0 discriminator 2
 411 0024 0434     		adds	r4, r4, #4
 412              	.LVL35:
 413 0026 A4B2     		uxth	r4, r4
 414              	.LVL36:
 415 0028 A142     		cmp	r1, r4
 416 002a 52D9     		bls	.L50
 417              	.LVL37:
 418              	.L43:
 419              		.loc 1 112 0 is_stmt 1
 420 002c 30F91430 		ldrsh	r3, [r0, r4, lsl #1]
 421 0030 07EE903A 		vmov	s15, r3	@ int
 422 0034 9500     		lsls	r5, r2, #2
 423 0036 F8EEE77A 		vcvt.f32.s32	s15, s15
 424 003a 0EEB0509 		add	r9, lr, r5
 425              		.loc 1 113 0
 426 003e 00EB4403 		add	r3, r0, r4, lsl #1
 427              		.loc 1 112 0
 428 0042 C9ED007A 		vstr.32	s15, [r9]
 429              		.loc 1 113 0
 430 0046 B3F90230 		ldrsh	r3, [r3, #2]
 431 004a 07EE903A 		vmov	s15, r3	@ int
 432              		.loc 1 115 0
 433 004e 531C     		adds	r3, r2, #1
 434 0050 9BB2     		uxth	r3, r3
 435 0052 9B00     		lsls	r3, r3, #2
 436              		.loc 1 117 0
 437 0054 0232     		adds	r2, r2, #2
 438              		.loc 1 115 0
 439 0056 0EEB0309 		add	r9, lr, r3
 440              		.loc 1 113 0
 441 005a F8EEE77A 		vcvt.f32.s32	s15, s15
 442              		.loc 1 117 0
 443 005e 92B2     		uxth	r2, r2
 444              		.loc 1 116 0
 445 0060 6344     		add	r3, r3, ip
 446              		.loc 1 113 0
 447 0062 6544     		add	r5, r5, ip
 448              		.loc 1 119 0
 449 0064 B2F5006F 		cmp	r2, #2048
 450              		.loc 1 113 0
 451 0068 C5ED007A 		vstr.32	s15, [r5]
 452              		.loc 1 115 0
 453 006c C9F80080 		str	r8, [r9]	@ float
 454              		.loc 1 116 0
 455 0070 C3F80080 		str	r8, [r3]	@ float
 456              		.loc 1 119 0
ARM GAS  C:\Users\filip\AppData\Local\Temp\ccUkPDFm.s 			page 9


 457 0074 D6D3     		bcc	.L41
 458 0076 3A80     		strh	r2, [r7]	@ movhi
 459              	.LVL38:
 460              	.L42:
 461              	.LBE12:
 462              		.loc 1 129 0
 463 0078 1A49     		ldr	r1, .L51+8
 464              	.LVL39:
 465 007a 4FF48060 		mov	r0, #1024
 466              	.LVL40:
 467 007e FFF7FEFF 		bl	doFFT_optimized
 468              	.LVL41:
 469              		.loc 1 130 0
 470 0082 1949     		ldr	r1, .L51+12
 471 0084 4FF48060 		mov	r0, #1024
 472 0088 FFF7FEFF 		bl	doFFT_optimized
 473              	.LVL42:
 474              		.loc 1 138 0
 475 008c 4FF48062 		mov	r2, #1024
 476 0090 1649     		ldr	r1, .L51+16
 477 0092 1448     		ldr	r0, .L51+8
 478 0094 FFF7FEFF 		bl	arm_cmplx_mag_f32
 479              	.LVL43:
 480              		.loc 1 139 0
 481 0098 4FF48062 		mov	r2, #1024
 482 009c 1449     		ldr	r1, .L51+20
 483 009e 1248     		ldr	r0, .L51+12
 484 00a0 FFF7FEFF 		bl	arm_cmplx_mag_f32
 485              	.LVL44:
 486              		.loc 1 142 0
 487 00a4 019A     		ldr	r2, [sp, #4]
 488 00a6 3368     		ldr	r3, [r6]
 489              		.loc 1 141 0
 490 00a8 0021     		movs	r1, #0
 491              		.loc 1 142 0
 492 00aa 9A42     		cmp	r2, r3
 493              		.loc 1 141 0
 494 00ac 3980     		strh	r1, [r7]	@ movhi
 495              		.loc 1 142 0
 496 00ae 12D1     		bne	.L49
 497 00b0 0E49     		ldr	r1, .L51+16
 498 00b2 0F48     		ldr	r0, .L51+20
 499              		.loc 1 144 0
 500 00b4 03B0     		add	sp, sp, #12
 501              		.cfi_remember_state
 502              		.cfi_def_cfa_offset 28
 503              		@ sp needed
 504 00b6 BDE8F043 		pop	{r4, r5, r6, r7, r8, r9, lr}
 505              		.cfi_restore 14
 506              		.cfi_restore 9
 507              		.cfi_restore 8
 508              		.cfi_restore 7
 509              		.cfi_restore 6
 510              		.cfi_restore 5
 511              		.cfi_restore 4
 512              		.cfi_def_cfa_offset 0
 513              		.loc 1 142 0
ARM GAS  C:\Users\filip\AppData\Local\Temp\ccUkPDFm.s 			page 10


 514 00ba FFF7FEBF 		b	sound_remote
 515              	.LVL45:
 516              	.L40:
 517              		.cfi_restore_state
 518              		.loc 1 123 0
 519 00be B2F5006F 		cmp	r2, #2048
 520 00c2 D9D2     		bcs	.L42
 521              	.LVL46:
 522              	.L39:
 523              		.loc 1 144 0
 524 00c4 019A     		ldr	r2, [sp, #4]
 525 00c6 3368     		ldr	r3, [r6]
 526 00c8 9A42     		cmp	r2, r3
 527 00ca 04D1     		bne	.L49
 528 00cc 03B0     		add	sp, sp, #12
 529              		.cfi_remember_state
 530              		.cfi_def_cfa_offset 28
 531              		@ sp needed
 532 00ce BDE8F083 		pop	{r4, r5, r6, r7, r8, r9, pc}
 533              	.LVL47:
 534              	.L50:
 535              		.cfi_restore_state
 536 00d2 3A80     		strh	r2, [r7]	@ movhi
 537 00d4 F6E7     		b	.L39
 538              	.LVL48:
 539              	.L49:
 540 00d6 FFF7FEFF 		bl	__stack_chk_fail
 541              	.LVL49:
 542              	.L52:
 543 00da 00BF     		.align	2
 544              	.L51:
 545 00dc 00000000 		.word	__stack_chk_guard
 546 00e0 00000000 		.word	.LANCHOR2
 547 00e4 00000000 		.word	micRight_cmplx_input
 548 00e8 00000000 		.word	micLeft_cmplx_input
 549 00ec 00000000 		.word	micRight_output
 550 00f0 00000000 		.word	micLeft_output
 551              		.cfi_endproc
 552              	.LFE292:
 553              		.size	processAudioData, .-processAudioData
 554              		.section	.text.get_audio_buffer_ptr,"ax",%progbits
 555              		.align	1
 556              		.p2align 4,,15
 557              		.global	get_audio_buffer_ptr
 558              		.syntax unified
 559              		.thumb
 560              		.thumb_func
 561              		.fpu fpv4-sp-d16
 562              		.type	get_audio_buffer_ptr, %function
 563              	get_audio_buffer_ptr:
 564              	.LFB293:
 565              		.loc 1 153 0
 566              		.cfi_startproc
 567              		@ args = 0, pretend = 0, frame = 8
 568              		@ frame_needed = 0, uses_anonymous_args = 0
 569              	.LVL50:
 570 0000 00B5     		push	{lr}
ARM GAS  C:\Users\filip\AppData\Local\Temp\ccUkPDFm.s 			page 11


 571              		.cfi_def_cfa_offset 4
 572              		.cfi_offset 14, -4
 573 0002 164B     		ldr	r3, .L66
 574 0004 83B0     		sub	sp, sp, #12
 575              		.cfi_def_cfa_offset 16
 576              		.loc 1 153 0
 577 0006 1A68     		ldr	r2, [r3]
 578 0008 0192     		str	r2, [sp, #4]
 579              		.loc 1 154 0
 580 000a 88B1     		cbz	r0, .L56
 581              		.loc 1 157 0
 582 000c 0128     		cmp	r0, #1
 583 000e 17D0     		beq	.L57
 584              		.loc 1 160 0
 585 0010 0228     		cmp	r0, #2
 586 0012 19D0     		beq	.L58
 587              		.loc 1 163 0
 588 0014 0328     		cmp	r0, #3
 589 0016 15D0     		beq	.L59
 590              		.loc 1 166 0
 591 0018 0428     		cmp	r0, #4
 592 001a 17D0     		beq	.L60
 593              		.loc 1 169 0
 594 001c 0528     		cmp	r0, #5
 595 001e 17D0     		beq	.L61
 596              		.loc 1 172 0
 597 0020 0628     		cmp	r0, #6
 598 0022 17D0     		beq	.L62
 599              		.loc 1 179 0
 600 0024 0E4A     		ldr	r2, .L66+4
 601              		.loc 1 175 0
 602 0026 0728     		cmp	r0, #7
 603              		.loc 1 179 0
 604 0028 0CBF     		ite	eq
 605 002a 1046     		moveq	r0, r2
 606              	.LVL51:
 607 002c 0020     		movne	r0, #0
 608 002e 00E0     		b	.L53
 609              	.LVL52:
 610              	.L56:
 611              		.loc 1 155 0
 612 0030 0C48     		ldr	r0, .L66+8
 613              	.LVL53:
 614              	.L53:
 615              		.loc 1 181 0
 616 0032 019A     		ldr	r2, [sp, #4]
 617 0034 1B68     		ldr	r3, [r3]
 618 0036 9A42     		cmp	r2, r3
 619 0038 0ED1     		bne	.L65
 620 003a 03B0     		add	sp, sp, #12
 621              		.cfi_remember_state
 622              		.cfi_def_cfa_offset 4
 623              		@ sp needed
 624 003c 5DF804FB 		ldr	pc, [sp], #4
 625              	.LVL54:
 626              	.L57:
 627              		.cfi_restore_state
ARM GAS  C:\Users\filip\AppData\Local\Temp\ccUkPDFm.s 			page 12


 628              		.loc 1 158 0
 629 0040 0948     		ldr	r0, .L66+12
 630              	.LVL55:
 631 0042 F6E7     		b	.L53
 632              	.LVL56:
 633              	.L59:
 634              		.loc 1 164 0
 635 0044 0948     		ldr	r0, .L66+16
 636              	.LVL57:
 637 0046 F4E7     		b	.L53
 638              	.LVL58:
 639              	.L58:
 640              		.loc 1 161 0
 641 0048 0948     		ldr	r0, .L66+20
 642              	.LVL59:
 643 004a F2E7     		b	.L53
 644              	.LVL60:
 645              	.L60:
 646              		.loc 1 167 0
 647 004c 0948     		ldr	r0, .L66+24
 648              	.LVL61:
 649 004e F0E7     		b	.L53
 650              	.LVL62:
 651              	.L61:
 652              		.loc 1 170 0
 653 0050 0948     		ldr	r0, .L66+28
 654              	.LVL63:
 655 0052 EEE7     		b	.L53
 656              	.LVL64:
 657              	.L62:
 658              		.loc 1 173 0
 659 0054 0948     		ldr	r0, .L66+32
 660              	.LVL65:
 661 0056 ECE7     		b	.L53
 662              	.L65:
 663              		.loc 1 181 0
 664 0058 FFF7FEFF 		bl	__stack_chk_fail
 665              	.LVL66:
 666              	.L67:
 667              		.align	2
 668              	.L66:
 669 005c 00000000 		.word	__stack_chk_guard
 670 0060 00000000 		.word	micBack_output
 671 0064 00000000 		.word	micLeft_cmplx_input
 672 0068 00000000 		.word	micRight_cmplx_input
 673 006c 00000000 		.word	micBack_cmplx_input
 674 0070 00000000 		.word	micFront_cmplx_input
 675 0074 00000000 		.word	micLeft_output
 676 0078 00000000 		.word	micRight_output
 677 007c 00000000 		.word	micFront_output
 678              		.cfi_endproc
 679              	.LFE293:
 680              		.size	get_audio_buffer_ptr, .-get_audio_buffer_ptr
 681              		.section	.text.get_state_celebrate,"ax",%progbits
 682              		.align	1
 683              		.p2align 4,,15
 684              		.global	get_state_celebrate
ARM GAS  C:\Users\filip\AppData\Local\Temp\ccUkPDFm.s 			page 13


 685              		.syntax unified
 686              		.thumb
 687              		.thumb_func
 688              		.fpu fpv4-sp-d16
 689              		.type	get_state_celebrate, %function
 690              	get_state_celebrate:
 691              	.LFB294:
 692              		.loc 1 183 0
 693              		.cfi_startproc
 694              		@ args = 0, pretend = 0, frame = 8
 695              		@ frame_needed = 0, uses_anonymous_args = 0
 696 0000 00B5     		push	{lr}
 697              		.cfi_def_cfa_offset 4
 698              		.cfi_offset 14, -4
 699 0002 074B     		ldr	r3, .L72
 700              		.loc 1 184 0
 701 0004 0749     		ldr	r1, .L72+4
 702              		.loc 1 183 0
 703 0006 1A68     		ldr	r2, [r3]
 704              		.loc 1 185 0
 705 0008 0878     		ldrb	r0, [r1]	@ zero_extendqisi2
 706              		.loc 1 183 0
 707 000a 83B0     		sub	sp, sp, #12
 708              		.cfi_def_cfa_offset 16
 709              		.loc 1 183 0
 710 000c 0192     		str	r2, [sp, #4]
 711              		.loc 1 185 0
 712 000e 019A     		ldr	r2, [sp, #4]
 713 0010 1B68     		ldr	r3, [r3]
 714 0012 9A42     		cmp	r2, r3
 715 0014 02D1     		bne	.L71
 716 0016 03B0     		add	sp, sp, #12
 717              		.cfi_remember_state
 718              		.cfi_def_cfa_offset 4
 719              		@ sp needed
 720 0018 5DF804FB 		ldr	pc, [sp], #4
 721              	.L71:
 722              		.cfi_restore_state
 723 001c FFF7FEFF 		bl	__stack_chk_fail
 724              	.LVL67:
 725              	.L73:
 726              		.align	2
 727              	.L72:
 728 0020 00000000 		.word	__stack_chk_guard
 729 0024 00000000 		.word	.LANCHOR1
 730              		.cfi_endproc
 731              	.LFE294:
 732              		.size	get_state_celebrate, .-get_state_celebrate
 733              		.section	.text.set_state_celebrate,"ax",%progbits
 734              		.align	1
 735              		.p2align 4,,15
 736              		.global	set_state_celebrate
 737              		.syntax unified
 738              		.thumb
 739              		.thumb_func
 740              		.fpu fpv4-sp-d16
 741              		.type	set_state_celebrate, %function
ARM GAS  C:\Users\filip\AppData\Local\Temp\ccUkPDFm.s 			page 14


 742              	set_state_celebrate:
 743              	.LFB295:
 744              		.loc 1 187 0
 745              		.cfi_startproc
 746              		@ args = 0, pretend = 0, frame = 8
 747              		@ frame_needed = 0, uses_anonymous_args = 0
 748              	.LVL68:
 749 0000 00B5     		push	{lr}
 750              		.cfi_def_cfa_offset 4
 751              		.cfi_offset 14, -4
 752 0002 074B     		ldr	r3, .L78
 753              		.loc 1 188 0
 754 0004 0749     		ldr	r1, .L78+4
 755              		.loc 1 187 0
 756 0006 1A68     		ldr	r2, [r3]
 757              		.loc 1 188 0
 758 0008 0870     		strb	r0, [r1]
 759              		.loc 1 187 0
 760 000a 83B0     		sub	sp, sp, #12
 761              		.cfi_def_cfa_offset 16
 762              		.loc 1 187 0
 763 000c 0192     		str	r2, [sp, #4]
 764              		.loc 1 189 0
 765 000e 019A     		ldr	r2, [sp, #4]
 766 0010 1B68     		ldr	r3, [r3]
 767 0012 9A42     		cmp	r2, r3
 768 0014 02D1     		bne	.L77
 769 0016 03B0     		add	sp, sp, #12
 770              		.cfi_remember_state
 771              		.cfi_def_cfa_offset 4
 772              		@ sp needed
 773 0018 5DF804FB 		ldr	pc, [sp], #4
 774              	.L77:
 775              		.cfi_restore_state
 776 001c FFF7FEFF 		bl	__stack_chk_fail
 777              	.LVL69:
 778              	.L79:
 779              		.align	2
 780              	.L78:
 781 0020 00000000 		.word	__stack_chk_guard
 782 0024 00000000 		.word	.LANCHOR1
 783              		.cfi_endproc
 784              	.LFE295:
 785              		.size	set_state_celebrate, .-set_state_celebrate
 786              		.section	.text.get_labyrinth,"ax",%progbits
 787              		.align	1
 788              		.p2align 4,,15
 789              		.global	get_labyrinth
 790              		.syntax unified
 791              		.thumb
 792              		.thumb_func
 793              		.fpu fpv4-sp-d16
 794              		.type	get_labyrinth, %function
 795              	get_labyrinth:
 796              	.LFB296:
 797              		.loc 1 191 0
 798              		.cfi_startproc
ARM GAS  C:\Users\filip\AppData\Local\Temp\ccUkPDFm.s 			page 15


 799              		@ args = 0, pretend = 0, frame = 8
 800              		@ frame_needed = 0, uses_anonymous_args = 0
 801 0000 00B5     		push	{lr}
 802              		.cfi_def_cfa_offset 4
 803              		.cfi_offset 14, -4
 804 0002 074B     		ldr	r3, .L84
 805              		.loc 1 192 0
 806 0004 0749     		ldr	r1, .L84+4
 807              		.loc 1 191 0
 808 0006 1A68     		ldr	r2, [r3]
 809              		.loc 1 193 0
 810 0008 0878     		ldrb	r0, [r1]	@ zero_extendqisi2
 811              		.loc 1 191 0
 812 000a 83B0     		sub	sp, sp, #12
 813              		.cfi_def_cfa_offset 16
 814              		.loc 1 191 0
 815 000c 0192     		str	r2, [sp, #4]
 816              		.loc 1 193 0
 817 000e 019A     		ldr	r2, [sp, #4]
 818 0010 1B68     		ldr	r3, [r3]
 819 0012 9A42     		cmp	r2, r3
 820 0014 02D1     		bne	.L83
 821 0016 03B0     		add	sp, sp, #12
 822              		.cfi_remember_state
 823              		.cfi_def_cfa_offset 4
 824              		@ sp needed
 825 0018 5DF804FB 		ldr	pc, [sp], #4
 826              	.L83:
 827              		.cfi_restore_state
 828 001c FFF7FEFF 		bl	__stack_chk_fail
 829              	.LVL70:
 830              	.L85:
 831              		.align	2
 832              	.L84:
 833 0020 00000000 		.word	__stack_chk_guard
 834 0024 00000000 		.word	.LANCHOR0
 835              		.cfi_endproc
 836              	.LFE296:
 837              		.size	get_labyrinth, .-get_labyrinth
 838              		.section	.text.set_labyrinth,"ax",%progbits
 839              		.align	1
 840              		.p2align 4,,15
 841              		.global	set_labyrinth
 842              		.syntax unified
 843              		.thumb
 844              		.thumb_func
 845              		.fpu fpv4-sp-d16
 846              		.type	set_labyrinth, %function
 847              	set_labyrinth:
 848              	.LFB297:
 849              		.loc 1 195 0
 850              		.cfi_startproc
 851              		@ args = 0, pretend = 0, frame = 8
 852              		@ frame_needed = 0, uses_anonymous_args = 0
 853              	.LVL71:
 854 0000 00B5     		push	{lr}
 855              		.cfi_def_cfa_offset 4
ARM GAS  C:\Users\filip\AppData\Local\Temp\ccUkPDFm.s 			page 16


 856              		.cfi_offset 14, -4
 857 0002 074B     		ldr	r3, .L90
 858              		.loc 1 196 0
 859 0004 0749     		ldr	r1, .L90+4
 860              		.loc 1 195 0
 861 0006 1A68     		ldr	r2, [r3]
 862              		.loc 1 196 0
 863 0008 0870     		strb	r0, [r1]
 864              		.loc 1 195 0
 865 000a 83B0     		sub	sp, sp, #12
 866              		.cfi_def_cfa_offset 16
 867              		.loc 1 195 0
 868 000c 0192     		str	r2, [sp, #4]
 869              		.loc 1 197 0
 870 000e 019A     		ldr	r2, [sp, #4]
 871 0010 1B68     		ldr	r3, [r3]
 872 0012 9A42     		cmp	r2, r3
 873 0014 02D1     		bne	.L89
 874 0016 03B0     		add	sp, sp, #12
 875              		.cfi_remember_state
 876              		.cfi_def_cfa_offset 4
 877              		@ sp needed
 878 0018 5DF804FB 		ldr	pc, [sp], #4
 879              	.L89:
 880              		.cfi_restore_state
 881 001c FFF7FEFF 		bl	__stack_chk_fail
 882              	.LVL72:
 883              	.L91:
 884              		.align	2
 885              	.L90:
 886 0020 00000000 		.word	__stack_chk_guard
 887 0024 00000000 		.word	.LANCHOR0
 888              		.cfi_endproc
 889              	.LFE297:
 890              		.size	set_labyrinth, .-set_labyrinth
 891              		.section	.bss.labyrinth,"aw",%nobits
 892              		.set	.LANCHOR0,. + 0
 893              		.type	labyrinth, %object
 894              		.size	labyrinth, 1
 895              	labyrinth:
 896 0000 00       		.space	1
 897              		.section	.bss.micBack_cmplx_input,"aw",%nobits
 898              		.align	2
 899              		.type	micBack_cmplx_input, %object
 900              		.size	micBack_cmplx_input, 8192
 901              	micBack_cmplx_input:
 902 0000 00000000 		.space	8192
 902      00000000 
 902      00000000 
 902      00000000 
 902      00000000 
 903              		.section	.bss.micBack_output,"aw",%nobits
 904              		.align	2
 905              		.type	micBack_output, %object
 906              		.size	micBack_output, 4096
 907              	micBack_output:
 908 0000 00000000 		.space	4096
ARM GAS  C:\Users\filip\AppData\Local\Temp\ccUkPDFm.s 			page 17


 908      00000000 
 908      00000000 
 908      00000000 
 908      00000000 
 909              		.section	.bss.micFront_cmplx_input,"aw",%nobits
 910              		.align	2
 911              		.type	micFront_cmplx_input, %object
 912              		.size	micFront_cmplx_input, 8192
 913              	micFront_cmplx_input:
 914 0000 00000000 		.space	8192
 914      00000000 
 914      00000000 
 914      00000000 
 914      00000000 
 915              		.section	.bss.micFront_output,"aw",%nobits
 916              		.align	2
 917              		.type	micFront_output, %object
 918              		.size	micFront_output, 4096
 919              	micFront_output:
 920 0000 00000000 		.space	4096
 920      00000000 
 920      00000000 
 920      00000000 
 920      00000000 
 921              		.section	.bss.micLeft_cmplx_input,"aw",%nobits
 922              		.align	2
 923              		.type	micLeft_cmplx_input, %object
 924              		.size	micLeft_cmplx_input, 8192
 925              	micLeft_cmplx_input:
 926 0000 00000000 		.space	8192
 926      00000000 
 926      00000000 
 926      00000000 
 926      00000000 
 927              		.section	.bss.micLeft_output,"aw",%nobits
 928              		.align	2
 929              		.type	micLeft_output, %object
 930              		.size	micLeft_output, 4096
 931              	micLeft_output:
 932 0000 00000000 		.space	4096
 932      00000000 
 932      00000000 
 932      00000000 
 932      00000000 
 933              		.section	.bss.micRight_cmplx_input,"aw",%nobits
 934              		.align	2
 935              		.type	micRight_cmplx_input, %object
 936              		.size	micRight_cmplx_input, 8192
 937              	micRight_cmplx_input:
 938 0000 00000000 		.space	8192
 938      00000000 
 938      00000000 
 938      00000000 
 938      00000000 
 939              		.section	.bss.micRight_output,"aw",%nobits
 940              		.align	2
 941              		.type	micRight_output, %object
ARM GAS  C:\Users\filip\AppData\Local\Temp\ccUkPDFm.s 			page 18


 942              		.size	micRight_output, 4096
 943              	micRight_output:
 944 0000 00000000 		.space	4096
 944      00000000 
 944      00000000 
 944      00000000 
 944      00000000 
 945              		.section	.bss.nb_samples.14188,"aw",%nobits
 946              		.align	1
 947              		.set	.LANCHOR2,. + 0
 948              		.type	nb_samples.14188, %object
 949              		.size	nb_samples.14188, 2
 950              	nb_samples.14188:
 951 0000 0000     		.space	2
 952              		.section	.bss.state_celebrate,"aw",%nobits
 953              		.set	.LANCHOR1,. + 0
 954              		.type	state_celebrate, %object
 955              		.size	state_celebrate, 1
 956              	state_celebrate:
 957 0000 00       		.space	1
 958              		.text
 959              	.Letext0:
 960              		.file 2 "c:\\users\\filip\\onedrive\\bureau\\eclipse_e-puck2\\tools\\gcc-arm-none-eabi-7-2017-q4-m
 961              		.file 3 "c:\\users\\filip\\onedrive\\bureau\\eclipse_e-puck2\\tools\\gcc-arm-none-eabi-7-2017-q4-m
 962              		.file 4 "c:\\users\\filip\\onedrive\\bureau\\eclipse_e-puck2\\tools\\gcc-arm-none-eabi-7-2017-q4-m
 963              		.file 5 "../../lib/e-puck2_main-processor/ChibiOS//os/rt/ports/ARMCMx/compilers/GCC/chtypes.h"
 964              		.file 6 "../../lib/e-puck2_main-processor/ChibiOS//os/rt/include/chsystypes.h"
 965              		.file 7 "../../lib/e-puck2_main-processor/ChibiOS//os/rt/include/chschd.h"
 966              		.file 8 "../../lib/e-puck2_main-processor/ChibiOS//os/ext/CMSIS/include/core_cm4.h"
 967              		.file 9 "../../lib/e-puck2_main-processor/ChibiOS//os/ext/CMSIS/ST/system_stm32f4xx.h"
 968              		.file 10 "../../lib/e-puck2_main-processor/ChibiOS//os/ext/CMSIS/ST/stm32f407xx.h"
 969              		.file 11 "../../lib/e-puck2_main-processor/ChibiOS//os/rt/ports/ARMCMx/chcore.h"
 970              		.file 12 "../../lib/e-puck2_main-processor/ChibiOS//os/rt/ports/ARMCMx/chcore_v7m.h"
 971              		.file 13 "../../lib/e-puck2_main-processor/ChibiOS//os/rt/include/chdebug.h"
 972              		.file 14 "../../lib/e-puck2_main-processor/ChibiOS//os/rt/include/chtm.h"
 973              		.file 15 "../../lib/e-puck2_main-processor/ChibiOS//os/rt/include/chstats.h"
 974              		.file 16 "../../lib/e-puck2_main-processor/ChibiOS//os/rt/include/chsem.h"
 975              		.file 17 "../../lib/e-puck2_main-processor/ChibiOS//os/rt/include/chmtx.h"
 976              		.file 18 "../../lib/e-puck2_main-processor/ChibiOS//os/rt/include/chregistry.h"
 977              		.file 19 "../../lib/e-puck2_main-processor/ChibiOS//os/rt/include/chbsem.h"
 978              		.file 20 "../../lib/e-puck2_main-processor/ChibiOS//os/rt/include/chevents.h"
 979              		.file 21 "../../lib/e-puck2_main-processor/ChibiOS//os/rt/include/chqueues.h"
 980              		.file 22 "../../lib/e-puck2_main-processor/ChibiOS//os/hal/ports/STM32/STM32F4xx/stm32_dma.h"
 981              		.file 23 "../../lib/e-puck2_main-processor/ChibiOS//os/hal/include/hal_ioblock.h"
 982              		.file 24 "../../lib/e-puck2_main-processor/ChibiOS//os/hal/ports/STM32/LLD/GPIOv2/pal_lld.h"
 983              		.file 25 "../../lib/e-puck2_main-processor/ChibiOS//os/hal/include/adc.h"
 984              		.file 26 "../../lib/e-puck2_main-processor/ChibiOS//os/hal/ports/STM32/STM32F4xx/adc_lld.h"
 985              		.file 27 "../../lib/e-puck2_main-processor/ChibiOS//os/hal/include/can.h"
 986              		.file 28 "../../lib/e-puck2_main-processor/ChibiOS//os/hal/ports/STM32/LLD/can_lld.h"
 987              		.file 29 "../../lib/e-puck2_main-processor/ChibiOS//os/hal/include/dac.h"
 988              		.file 30 "../../lib/e-puck2_main-processor/ChibiOS//os/hal/ports/STM32/LLD/DACv1/dac_lld.h"
 989              		.file 31 "../../lib/e-puck2_main-processor/ChibiOS//os/hal/include/ext.h"
 990              		.file 32 "../../lib/e-puck2_main-processor/ChibiOS//os/hal/ports/STM32/LLD/ext_lld.h"
 991              		.file 33 "../../lib/e-puck2_main-processor/ChibiOS//os/hal/include/gpt.h"
 992              		.file 34 "../../lib/e-puck2_main-processor/ChibiOS//os/hal/ports/STM32/LLD/TIMv1/gpt_lld.h"
 993              		.file 35 "../../lib/e-puck2_main-processor/ChibiOS//os/hal/ports/STM32/LLD/TIMv1/stm32_tim.h"
 994              		.file 36 "../../lib/e-puck2_main-processor/ChibiOS//os/hal/include/i2c.h"
ARM GAS  C:\Users\filip\AppData\Local\Temp\ccUkPDFm.s 			page 19


 995              		.file 37 "../../lib/e-puck2_main-processor/ChibiOS//os/hal/ports/STM32/LLD/I2Cv1/i2c_lld.h"
 996              		.file 38 "../../lib/e-puck2_main-processor/ChibiOS//os/hal/include/i2s.h"
 997              		.file 39 "../../lib/e-puck2_main-processor/ChibiOS//os/hal/ports/STM32/LLD/SPIv1/i2s_lld.h"
 998              		.file 40 "../../lib/e-puck2_main-processor/ChibiOS//os/hal/include/pwm.h"
 999              		.file 41 "../../lib/e-puck2_main-processor/ChibiOS//os/hal/ports/STM32/LLD/TIMv1/pwm_lld.h"
 1000              		.file 42 "../../lib/e-puck2_main-processor/ChibiOS//os/hal/include/serial.h"
 1001              		.file 43 "../../lib/e-puck2_main-processor/ChibiOS//os/hal/ports/STM32/LLD/USARTv1/serial_lld.h"
 1002              		.file 44 "../../lib/e-puck2_main-processor/ChibiOS//os/hal/include/sdc.h"
 1003              		.file 45 "../../lib/e-puck2_main-processor/ChibiOS//os/hal/ports/STM32/LLD/sdc_lld.h"
 1004              		.file 46 "../../lib/e-puck2_main-processor/ChibiOS//os/hal/include/spi.h"
 1005              		.file 47 "../../lib/e-puck2_main-processor/ChibiOS//os/hal/ports/STM32/LLD/SPIv1/spi_lld.h"
 1006              		.file 48 "../../lib/e-puck2_main-processor/ChibiOS//os/hal/include/usb.h"
 1007              		.file 49 "../../lib/e-puck2_main-processor/ChibiOS//os/hal/ports/STM32/LLD/OTGv1/usb_lld.h"
 1008              		.file 50 "../../lib/e-puck2_main-processor/ChibiOS//os/hal/ports/STM32/LLD/OTGv1/stm32_otg.h"
 1009              		.file 51 "../../lib/e-puck2_main-processor/ChibiOS//os/hal/include/serial_usb.h"
 1010              		.file 52 "../../lib/e-puck2_main-processor/ChibiOS_ext/os/hal/include/../ports/STM32/STM32F4xx/dcm
 1011              		.file 53 "c:\\users\\filip\\onedrive\\bureau\\eclipse_e-puck2\\tools\\gcc-arm-none-eabi-7-2017-q4-
 1012              		.file 54 "c:\\users\\filip\\onedrive\\bureau\\eclipse_e-puck2\\tools\\gcc-arm-none-eabi-7-2017-q4-
 1013              		.file 55 "c:\\users\\filip\\onedrive\\bureau\\eclipse_e-puck2\\tools\\gcc-arm-none-eabi-7-2017-q4-
 1014              		.file 56 "../../lib/e-puck2_main-processor/src/msgbus/messagebus.h"
 1015              		.file 57 "c:\\users\\filip\\onedrive\\bureau\\eclipse_e-puck2\\tools\\gcc-arm-none-eabi-7-2017-q4-
 1016              		.file 58 "c:\\users\\filip\\onedrive\\bureau\\eclipse_e-puck2\\tools\\gcc-arm-none-eabi-7-2017-q4-
 1017              		.file 59 "../../lib/e-puck2_main-processor/src/parameter/parameter.h"
 1018              		.file 60 "./main.h"
 1019              		.file 61 "../../lib/e-puck2_main-processor/src/usbcfg.h"
 1020              		.file 62 "./audio_processing.h"
 1021              		.file 63 "c:\\users\\filip\\onedrive\\bureau\\eclipse_e-puck2\\tools\\gcc-arm-none-eabi-7-2017-q4-
 1022              		.file 64 "./fft.h"
 1023              		.file 65 "../../lib/e-puck2_main-processor/ChibiOS//os/ext/CMSIS/include/arm_math.h"
 1024              		.file 66 "./motor.h"
 1025              		.file 67 "../../lib/e-puck2_main-processor/ChibiOS//os/rt/include/chthreads.h"