ARM GAS  C:\Users\filip\AppData\Local\Temp\ccJzur8h.s 			page 1


   1              		.cpu cortex-m4
   2              		.eabi_attribute 27, 1
   3              		.eabi_attribute 28, 1
   4              		.eabi_attribute 20, 1
   5              		.eabi_attribute 21, 1
   6              		.eabi_attribute 23, 3
   7              		.eabi_attribute 24, 1
   8              		.eabi_attribute 25, 1
   9              		.eabi_attribute 26, 1
  10              		.eabi_attribute 30, 2
  11              		.eabi_attribute 34, 1
  12              		.eabi_attribute 18, 4
  13              		.file	"capteurs.c"
  14              		.text
  15              	.Ltext0:
  16              		.cfi_sections	.debug_frame
  17              		.section	.text.proximity,"ax",%progbits
  18              		.align	1
  19              		.p2align 4,,15
  20              		.global	proximity
  21              		.syntax unified
  22              		.thumb
  23              		.thumb_func
  24              		.fpu fpv4-sp-d16
  25              		.type	proximity, %function
  26              	proximity:
  27              	.LFB256:
  28              		.file 1 "capteurs.c"
  29              		.loc 1 32 0
  30              		.cfi_startproc
  31              		@ args = 0, pretend = 0, frame = 8
  32              		@ frame_needed = 0, uses_anonymous_args = 0
  33 0000 30B5     		push	{r4, r5, lr}
  34              		.cfi_def_cfa_offset 12
  35              		.cfi_offset 4, -12
  36              		.cfi_offset 5, -8
  37              		.cfi_offset 14, -4
  38 0002 D94D     		ldr	r5, .L122
  39 0004 83B0     		sub	sp, sp, #12
  40              		.cfi_def_cfa_offset 24
  41              		.loc 1 32 0
  42 0006 2B68     		ldr	r3, [r5]
  43 0008 0193     		str	r3, [sp, #4]
  44              		.loc 1 34 0
  45 000a 0020     		movs	r0, #0
  46 000c FFF7FEFF 		bl	get_calibrated_prox
  47              	.LVL0:
  48 0010 9628     		cmp	r0, #150
  49 0012 04DC     		bgt	.L5
  50              		.loc 1 34 0 is_stmt 0 discriminator 2
  51 0014 0720     		movs	r0, #7
  52 0016 FFF7FEFF 		bl	get_calibrated_prox
  53              	.LVL1:
  54 001a 9628     		cmp	r0, #150
  55 001c 05DD     		ble	.L4
  56              	.L5:
  57              		.loc 1 35 0 is_stmt 1
ARM GAS  C:\Users\filip\AppData\Local\Temp\ccJzur8h.s 			page 2


  58 001e 0520     		movs	r0, #5
  59 0020 FFF7FEFF 		bl	get_calibrated_prox
  60              	.LVL2:
  61              		.loc 1 34 0
  62 0024 0328     		cmp	r0, #3
  63 0026 00F3F480 		bgt	.L107
  64              	.L4:
  65              		.loc 1 40 0
  66 002a 0020     		movs	r0, #0
  67 002c FFF7FEFF 		bl	get_calibrated_prox
  68              	.LVL3:
  69 0030 9628     		cmp	r0, #150
  70 0032 40F3B580 		ble	.L7
  71              		.loc 1 41 0
  72 0036 0520     		movs	r0, #5
  73 0038 FFF7FEFF 		bl	get_calibrated_prox
  74              	.LVL4:
  75              		.loc 1 40 0
  76 003c 0228     		cmp	r0, #2
  77 003e 40F3F880 		ble	.L108
  78              	.L9:
  79              		.loc 1 46 0
  80 0042 0020     		movs	r0, #0
  81 0044 FFF7FEFF 		bl	get_calibrated_prox
  82              	.LVL5:
  83 0048 9528     		cmp	r0, #149
  84 004a 00F3B680 		bgt	.L12
  85              		.loc 1 47 0
  86 004e 0520     		movs	r0, #5
  87 0050 FFF7FEFF 		bl	get_calibrated_prox
  88              	.LVL6:
  89              		.loc 1 46 0
  90 0054 0328     		cmp	r0, #3
  91 0056 00F3FC80 		bgt	.L109
  92              	.L14:
  93              		.loc 1 68 0
  94 005a 0020     		movs	r0, #0
  95 005c FFF7FEFF 		bl	get_calibrated_prox
  96              	.LVL7:
  97 0060 9628     		cmp	r0, #150
  98 0062 40F3B780 		ble	.L23
  99              		.loc 1 69 0
 100 0066 0520     		movs	r0, #5
 101 0068 FFF7FEFF 		bl	get_calibrated_prox
 102              	.LVL8:
 103              		.loc 1 68 0
 104 006c 0328     		cmp	r0, #3
 105 006e 00F34C81 		bgt	.L110
 106              	.L25:
 107              		.loc 1 75 0
 108 0072 0020     		movs	r0, #0
 109 0074 FFF7FEFF 		bl	get_calibrated_prox
 110              	.LVL9:
 111 0078 1D28     		cmp	r0, #29
 112 007a 00F3B880 		bgt	.L28
 113              		.loc 1 76 0
 114 007e 0520     		movs	r0, #5
ARM GAS  C:\Users\filip\AppData\Local\Temp\ccJzur8h.s 			page 3


 115 0080 FFF7FEFF 		bl	get_calibrated_prox
 116              	.LVL10:
 117              		.loc 1 75 0
 118 0084 0228     		cmp	r0, #2
 119 0086 00F3BD80 		bgt	.L111
 120              	.L29:
 121              		.loc 1 78 0
 122 008a 0020     		movs	r0, #0
 123 008c FFF7FEFF 		bl	right_motor_set_pos
 124              	.LVL11:
 125              		.loc 1 79 0
 126 0090 B64C     		ldr	r4, .L122+4
 127 0092 03E0     		b	.L32
 128              	.L112:
 129              		.loc 1 79 0 is_stmt 0 discriminator 1
 130 0094 2378     		ldrb	r3, [r4]	@ zero_extendqisi2
 131 0096 4BB9     		cbnz	r3, .L34
 132              		.loc 1 80 0 is_stmt 1
 133 0098 FFF7FEFF 		bl	go_forward
 134              	.LVL12:
 135              	.L32:
 136              		.loc 1 79 0
 137 009c FFF7FEFF 		bl	right_motor_get_pos
 138              	.LVL13:
 139 00a0 0028     		cmp	r0, #0
 140 00a2 B8BF     		it	lt
 141 00a4 4042     		rsblt	r0, r0, #0
 142 00a6 B0F5A27F 		cmp	r0, #324
 143 00aa F3DD     		ble	.L112
 144              	.L34:
 145              		.loc 1 82 0
 146 00ac 0020     		movs	r0, #0
 147 00ae FFF7FEFF 		bl	right_motor_set_pos
 148              	.LVL14:
 149              		.loc 1 83 0
 150 00b2 AE4C     		ldr	r4, .L122+4
 151 00b4 03E0     		b	.L36
 152              	.L113:
 153              		.loc 1 83 0 is_stmt 0 discriminator 1
 154 00b6 2378     		ldrb	r3, [r4]	@ zero_extendqisi2
 155 00b8 43B1     		cbz	r3, .L37
 156              		.loc 1 84 0 is_stmt 1
 157 00ba FFF7FEFF 		bl	go_forward
 158              	.LVL15:
 159              	.L36:
 160              		.loc 1 83 0
 161 00be FFF7FEFF 		bl	right_motor_get_pos
 162              	.LVL16:
 163 00c2 0028     		cmp	r0, #0
 164 00c4 B8BF     		it	lt
 165 00c6 4042     		rsblt	r0, r0, #0
 166 00c8 4A28     		cmp	r0, #74
 167 00ca F4DD     		ble	.L113
 168              	.L37:
 169              		.loc 1 88 0
 170 00cc 0020     		movs	r0, #0
 171 00ce FFF7FEFF 		bl	get_calibrated_prox
ARM GAS  C:\Users\filip\AppData\Local\Temp\ccJzur8h.s 			page 4


 172              	.LVL17:
 173 00d2 0E28     		cmp	r0, #14
 174 00d4 05DC     		bgt	.L39
 175              		.loc 1 88 0 is_stmt 0 discriminator 1
 176 00d6 0220     		movs	r0, #2
 177 00d8 FFF7FEFF 		bl	get_calibrated_prox
 178              	.LVL18:
 179 00dc 0E28     		cmp	r0, #14
 180 00de 40F3E381 		ble	.L114
 181              	.L39:
 182              		.loc 1 94 0 is_stmt 1
 183 00e2 0020     		movs	r0, #0
 184 00e4 FFF7FEFF 		bl	get_calibrated_prox
 185              	.LVL19:
 186 00e8 1D28     		cmp	r0, #29
 187 00ea 40F3DF80 		ble	.L44
 188              		.loc 1 94 0 is_stmt 0 discriminator 2
 189 00ee 0720     		movs	r0, #7
 190 00f0 FFF7FEFF 		bl	get_calibrated_prox
 191              	.LVL20:
 192 00f4 1D28     		cmp	r0, #29
 193 00f6 40F3D980 		ble	.L44
 194              	.L43:
 195              		.loc 1 106 0 is_stmt 1
 196 00fa 0020     		movs	r0, #0
 197 00fc FFF7FEFF 		bl	get_calibrated_prox
 198              	.LVL21:
 199 0100 1D28     		cmp	r0, #29
 200 0102 04DD     		ble	.L50
 201              		.loc 1 106 0 is_stmt 0 discriminator 2
 202 0104 0720     		movs	r0, #7
 203 0106 FFF7FEFF 		bl	get_calibrated_prox
 204              	.LVL22:
 205 010a 1D28     		cmp	r0, #29
 206 010c 05DC     		bgt	.L49
 207              	.L50:
 208              		.loc 1 107 0 is_stmt 1
 209 010e 0520     		movs	r0, #5
 210 0110 FFF7FEFF 		bl	get_calibrated_prox
 211              	.LVL23:
 212              		.loc 1 106 0
 213 0114 0328     		cmp	r0, #3
 214 0116 00F32F81 		bgt	.L115
 215              	.L49:
 216              		.loc 1 115 0
 217 011a 0020     		movs	r0, #0
 218 011c FFF7FEFF 		bl	get_calibrated_prox
 219              	.LVL24:
 220 0120 9528     		cmp	r0, #149
 221 0122 00F3EB80 		bgt	.L52
 222              	.L55:
 223              		.loc 1 116 0
 224 0126 0520     		movs	r0, #5
 225 0128 FFF7FEFF 		bl	get_calibrated_prox
 226              	.LVL25:
 227              		.loc 1 115 0
 228 012c 0328     		cmp	r0, #3
ARM GAS  C:\Users\filip\AppData\Local\Temp\ccJzur8h.s 			page 5


 229 012e 00F3D581 		bgt	.L116
 230              	.L54:
 231              		.loc 1 127 0
 232 0132 0020     		movs	r0, #0
 233 0134 FFF7FEFF 		bl	get_calibrated_prox
 234              	.LVL26:
 235 0138 9528     		cmp	r0, #149
 236 013a 00F3F980 		bgt	.L58
 237              	.L61:
 238              		.loc 1 128 0
 239 013e 0520     		movs	r0, #5
 240 0140 FFF7FEFF 		bl	get_calibrated_prox
 241              	.LVL27:
 242              		.loc 1 127 0
 243 0144 0228     		cmp	r0, #2
 244 0146 40F35981 		ble	.L117
 245              	.L60:
 246              		.loc 1 136 0
 247 014a 0020     		movs	r0, #0
 248 014c FFF7FEFF 		bl	get_calibrated_prox
 249              	.LVL28:
 250 0150 9528     		cmp	r0, #149
 251 0152 00F3F480 		bgt	.L63
 252              	.L66:
 253              		.loc 1 137 0
 254 0156 0520     		movs	r0, #5
 255 0158 FFF7FEFF 		bl	get_calibrated_prox
 256              	.LVL29:
 257              		.loc 1 136 0
 258 015c 0228     		cmp	r0, #2
 259 015e 40F36881 		ble	.L118
 260              	.L65:
 261              		.loc 1 148 0
 262 0162 0020     		movs	r0, #0
 263 0164 FFF7FEFF 		bl	get_calibrated_prox
 264              	.LVL30:
 265 0168 9528     		cmp	r0, #149
 266 016a 00F3EF80 		bgt	.L69
 267              	.L72:
 268              		.loc 1 149 0
 269 016e 0520     		movs	r0, #5
 270 0170 FFF7FEFF 		bl	get_calibrated_prox
 271              	.LVL31:
 272              		.loc 1 148 0
 273 0174 0228     		cmp	r0, #2
 274 0176 40F37E81 		ble	.L119
 275              	.L71:
 276              		.loc 1 157 0
 277 017a 0020     		movs	r0, #0
 278 017c FFF7FEFF 		bl	get_calibrated_prox
 279              	.LVL32:
 280 0180 9528     		cmp	r0, #149
 281 0182 00F3EA80 		bgt	.L74
 282              	.L76:
 283              		.loc 1 158 0
 284 0186 0520     		movs	r0, #5
 285 0188 FFF7FEFF 		bl	get_calibrated_prox
ARM GAS  C:\Users\filip\AppData\Local\Temp\ccJzur8h.s 			page 6


 286              	.LVL33:
 287              		.loc 1 157 0
 288 018c 0228     		cmp	r0, #2
 289 018e 40F30D81 		ble	.L120
 290              	.L1:
 291              		.loc 1 169 0
 292 0192 019A     		ldr	r2, [sp, #4]
 293 0194 2B68     		ldr	r3, [r5]
 294 0196 9A42     		cmp	r2, r3
 295 0198 40F04981 		bne	.L100
 296 019c 03B0     		add	sp, sp, #12
 297              		.cfi_remember_state
 298              		.cfi_def_cfa_offset 12
 299              		@ sp needed
 300 019e 30BD     		pop	{r4, r5, pc}
 301              	.L7:
 302              		.cfi_restore_state
 303              		.loc 1 40 0 discriminator 2
 304 01a0 0720     		movs	r0, #7
 305 01a2 FFF7FEFF 		bl	get_calibrated_prox
 306              	.LVL34:
 307 01a6 9628     		cmp	r0, #150
 308 01a8 7FF74BAF 		ble	.L9
 309              		.loc 1 41 0
 310 01ac 0520     		movs	r0, #5
 311 01ae FFF7FEFF 		bl	get_calibrated_prox
 312              	.LVL35:
 313              		.loc 1 40 0
 314 01b2 0228     		cmp	r0, #2
 315 01b4 3FF745AF 		bgt	.L9
 316 01b8 3BE0     		b	.L108
 317              	.L12:
 318              		.loc 1 46 0 discriminator 2
 319 01ba 0720     		movs	r0, #7
 320 01bc FFF7FEFF 		bl	get_calibrated_prox
 321              	.LVL36:
 322 01c0 9528     		cmp	r0, #149
 323 01c2 3FF74AAF 		bgt	.L14
 324              		.loc 1 47 0
 325 01c6 0520     		movs	r0, #5
 326 01c8 FFF7FEFF 		bl	get_calibrated_prox
 327              	.LVL37:
 328              		.loc 1 46 0
 329 01cc 0328     		cmp	r0, #3
 330 01ce 7FF744AF 		ble	.L14
 331 01d2 3EE0     		b	.L109
 332              	.L23:
 333              		.loc 1 68 0 discriminator 2
 334 01d4 0720     		movs	r0, #7
 335 01d6 FFF7FEFF 		bl	get_calibrated_prox
 336              	.LVL38:
 337 01da 9628     		cmp	r0, #150
 338 01dc 7FF749AF 		ble	.L25
 339              		.loc 1 69 0
 340 01e0 0520     		movs	r0, #5
 341 01e2 FFF7FEFF 		bl	get_calibrated_prox
 342              	.LVL39:
ARM GAS  C:\Users\filip\AppData\Local\Temp\ccJzur8h.s 			page 7


 343              		.loc 1 68 0
 344 01e6 0328     		cmp	r0, #3
 345 01e8 7FF743AF 		ble	.L25
 346 01ec 8DE0     		b	.L110
 347              	.L28:
 348              		.loc 1 75 0 discriminator 2
 349 01ee 0720     		movs	r0, #7
 350 01f0 FFF7FEFF 		bl	get_calibrated_prox
 351              	.LVL40:
 352 01f4 1D28     		cmp	r0, #29
 353 01f6 CCDC     		bgt	.L1
 354              		.loc 1 76 0
 355 01f8 0520     		movs	r0, #5
 356 01fa FFF7FEFF 		bl	get_calibrated_prox
 357              	.LVL41:
 358              		.loc 1 75 0
 359 01fe 0228     		cmp	r0, #2
 360 0200 7FF743AF 		ble	.L29
 361              	.L111:
 362              		.loc 1 76 0
 363 0204 0220     		movs	r0, #2
 364 0206 FFF7FEFF 		bl	get_calibrated_prox
 365              	.LVL42:
 366 020a 0228     		cmp	r0, #2
 367 020c 7FF73DAF 		ble	.L29
 368 0210 BFE7     		b	.L1
 369              	.L107:
 370              		.loc 1 35 0
 371 0212 0220     		movs	r0, #2
 372 0214 FFF7FEFF 		bl	get_calibrated_prox
 373              	.LVL43:
 374 0218 0228     		cmp	r0, #2
 375 021a 3FF706AF 		bgt	.L4
 376              		.loc 1 36 0
 377 021e 019A     		ldr	r2, [sp, #4]
 378 0220 2B68     		ldr	r3, [r5]
 379 0222 9A42     		cmp	r2, r3
 380 0224 40F00381 		bne	.L100
 381              	.L51:
 382              		.loc 1 169 0
 383 0228 03B0     		add	sp, sp, #12
 384              		.cfi_remember_state
 385              		.cfi_def_cfa_offset 12
 386              		@ sp needed
 387 022a BDE83040 		pop	{r4, r5, lr}
 388              		.cfi_restore 14
 389              		.cfi_restore 5
 390              		.cfi_restore 4
 391              		.cfi_def_cfa_offset 0
 392              		.loc 1 111 0
 393 022e FFF7FEBF 		b	quarter_turn_right
 394              	.LVL44:
 395              	.L108:
 396              		.cfi_restore_state
 397              		.loc 1 41 0
 398 0232 0220     		movs	r0, #2
 399 0234 FFF7FEFF 		bl	get_calibrated_prox
ARM GAS  C:\Users\filip\AppData\Local\Temp\ccJzur8h.s 			page 8


 400              	.LVL45:
 401 0238 0328     		cmp	r0, #3
 402 023a 7FF702AF 		ble	.L9
 403              	.L101:
 404              		.loc 1 153 0
 405 023e 019A     		ldr	r2, [sp, #4]
 406 0240 2B68     		ldr	r3, [r5]
 407 0242 9A42     		cmp	r2, r3
 408 0244 40F0F380 		bne	.L100
 409              	.L73:
 410              		.loc 1 169 0
 411 0248 03B0     		add	sp, sp, #12
 412              		.cfi_remember_state
 413              		.cfi_def_cfa_offset 12
 414              		@ sp needed
 415 024a BDE83040 		pop	{r4, r5, lr}
 416              		.cfi_restore 14
 417              		.cfi_restore 5
 418              		.cfi_restore 4
 419              		.cfi_def_cfa_offset 0
 420              		.loc 1 153 0
 421 024e FFF7FEBF 		b	quarter_turn_left
 422              	.LVL46:
 423              	.L109:
 424              		.cfi_restore_state
 425              		.loc 1 47 0
 426 0252 0220     		movs	r0, #2
 427 0254 FFF7FEFF 		bl	get_calibrated_prox
 428              	.LVL47:
 429 0258 0328     		cmp	r0, #3
 430 025a 7FF7FEAE 		ble	.L14
 431              		.loc 1 50 0
 432 025e 0520     		movs	r0, #5
 433 0260 FFF7FEFF 		bl	get_calibrated_prox
 434              	.LVL48:
 435 0264 0446     		mov	r4, r0
 436 0266 0220     		movs	r0, #2
 437 0268 FFF7FEFF 		bl	get_calibrated_prox
 438              	.LVL49:
 439 026c 201A     		subs	r0, r4, r0
 440 026e 5A28     		cmp	r0, #90
 441 0270 00F35681 		bgt	.L121
 442              	.L16:
 443              		.loc 1 56 0
 444 0274 0220     		movs	r0, #2
 445 0276 FFF7FEFF 		bl	get_calibrated_prox
 446              	.LVL50:
 447 027a 0446     		mov	r4, r0
 448 027c 0520     		movs	r0, #5
 449 027e FFF7FEFF 		bl	get_calibrated_prox
 450              	.LVL51:
 451 0282 201A     		subs	r0, r4, r0
 452 0284 5A28     		cmp	r0, #90
 453 0286 40F35C81 		ble	.L20
 454              		.loc 1 57 0 discriminator 1
 455 028a 0020     		movs	r0, #0
 456 028c FFF7FEFF 		bl	get_calibrated_prox
ARM GAS  C:\Users\filip\AppData\Local\Temp\ccJzur8h.s 			page 9


 457              	.LVL52:
 458              		.loc 1 56 0 discriminator 1
 459 0290 1D28     		cmp	r0, #29
 460 0292 05DD     		ble	.L22
 461              		.loc 1 57 0
 462 0294 0720     		movs	r0, #7
 463 0296 FFF7FEFF 		bl	get_calibrated_prox
 464              	.LVL53:
 465 029a 1D28     		cmp	r0, #29
 466 029c 00F35181 		bgt	.L20
 467              	.L22:
 468              		.loc 1 58 0
 469 02a0 FFF7FEFF 		bl	calibrate_pos_right
 470              	.LVL54:
 471              		.loc 1 59 0
 472 02a4 314B     		ldr	r3, .L122+4
 473 02a6 0122     		movs	r2, #1
 474 02a8 1A70     		strb	r2, [r3]
 475 02aa 72E7     		b	.L1
 476              	.L44:
 477              		.loc 1 95 0
 478 02ac 0520     		movs	r0, #5
 479 02ae FFF7FEFF 		bl	get_calibrated_prox
 480              	.LVL55:
 481              		.loc 1 94 0
 482 02b2 0228     		cmp	r0, #2
 483 02b4 3FF721AF 		bgt	.L43
 484              		.loc 1 95 0
 485 02b8 0220     		movs	r0, #2
 486 02ba FFF7FEFF 		bl	get_calibrated_prox
 487              	.LVL56:
 488 02be 0328     		cmp	r0, #3
 489 02c0 7FF71BAF 		ble	.L43
 490              		.loc 1 95 0 is_stmt 0 discriminator 1
 491 02c4 2A4B     		ldr	r3, .L122+8
 492 02c6 1C78     		ldrb	r4, [r3]	@ zero_extendqisi2
 493 02c8 002C     		cmp	r4, #0
 494 02ca 7FF416AF 		bne	.L43
 495              		.loc 1 96 0 is_stmt 1
 496 02ce FA21     		movs	r1, #250
 497 02d0 4FF4DC70 		mov	r0, #440
 498 02d4 FFF7FEFF 		bl	playNote
 499              	.LVL57:
 500              		.loc 1 97 0
 501 02d8 264B     		ldr	r3, .L122+12
 502              		.loc 1 99 0
 503 02da 2046     		mov	r0, r4
 504              		.loc 1 97 0
 505 02dc 1C70     		strb	r4, [r3]
 506              		.loc 1 100 0
 507 02de 40F28924 		movw	r4, #649
 508              		.loc 1 99 0
 509 02e2 FFF7FEFF 		bl	right_motor_set_pos
 510              	.LVL58:
 511              		.loc 1 100 0
 512 02e6 01E0     		b	.L45
 513              	.L46:
ARM GAS  C:\Users\filip\AppData\Local\Temp\ccJzur8h.s 			page 10


 514              		.loc 1 101 0
 515 02e8 FFF7FEFF 		bl	go_forward
 516              	.LVL59:
 517              	.L45:
 518              		.loc 1 100 0
 519 02ec FFF7FEFF 		bl	right_motor_get_pos
 520              	.LVL60:
 521 02f0 0028     		cmp	r0, #0
 522 02f2 B8BF     		it	lt
 523 02f4 4042     		rsblt	r0, r0, #0
 524 02f6 A042     		cmp	r0, r4
 525 02f8 F6DD     		ble	.L46
 526 02fa 4AE7     		b	.L1
 527              	.L52:
 528              		.loc 1 115 0 discriminator 2
 529 02fc 0720     		movs	r0, #7
 530 02fe FFF7FEFF 		bl	get_calibrated_prox
 531              	.LVL61:
 532 0302 9528     		cmp	r0, #149
 533 0304 7FF70FAF 		ble	.L55
 534 0308 13E7     		b	.L54
 535              	.L110:
 536              		.loc 1 69 0
 537 030a 0220     		movs	r0, #2
 538 030c FFF7FEFF 		bl	get_calibrated_prox
 539              	.LVL62:
 540 0310 0328     		cmp	r0, #3
 541 0312 7FF7AEAE 		ble	.L25
 542              		.loc 1 71 0
 543 0316 019A     		ldr	r2, [sp, #4]
 544 0318 2B68     		ldr	r3, [r5]
 545              		.loc 1 70 0
 546 031a 1549     		ldr	r1, .L122+8
 547 031c 0120     		movs	r0, #1
 548              		.loc 1 71 0
 549 031e 9A42     		cmp	r2, r3
 550              		.loc 1 70 0
 551 0320 0870     		strb	r0, [r1]
 552              		.loc 1 71 0
 553 0322 40F08480 		bne	.L100
 554              		.loc 1 169 0
 555 0326 03B0     		add	sp, sp, #12
 556              		.cfi_remember_state
 557              		.cfi_def_cfa_offset 12
 558              		@ sp needed
 559 0328 BDE83040 		pop	{r4, r5, lr}
 560              		.cfi_restore 14
 561              		.cfi_restore 5
 562              		.cfi_restore 4
 563              		.cfi_def_cfa_offset 0
 564              		.loc 1 71 0
 565 032c FFF7FEBF 		b	turn_back
 566              	.LVL63:
 567              	.L58:
 568              		.cfi_restore_state
 569              		.loc 1 127 0 discriminator 2
 570 0330 0720     		movs	r0, #7
ARM GAS  C:\Users\filip\AppData\Local\Temp\ccJzur8h.s 			page 11


 571 0332 FFF7FEFF 		bl	get_calibrated_prox
 572              	.LVL64:
 573 0336 9528     		cmp	r0, #149
 574 0338 7FF701AF 		ble	.L61
 575 033c 05E7     		b	.L60
 576              	.L63:
 577              		.loc 1 136 0 discriminator 2
 578 033e 0720     		movs	r0, #7
 579 0340 FFF7FEFF 		bl	get_calibrated_prox
 580              	.LVL65:
 581 0344 9528     		cmp	r0, #149
 582 0346 7FF706AF 		ble	.L66
 583 034a 0AE7     		b	.L65
 584              	.L69:
 585              		.loc 1 148 0 discriminator 2
 586 034c 0720     		movs	r0, #7
 587 034e FFF7FEFF 		bl	get_calibrated_prox
 588              	.LVL66:
 589 0352 9528     		cmp	r0, #149
 590 0354 7FF70BAF 		ble	.L72
 591 0358 0FE7     		b	.L71
 592              	.L74:
 593              		.loc 1 157 0 discriminator 2
 594 035a 0720     		movs	r0, #7
 595 035c FFF7FEFF 		bl	get_calibrated_prox
 596              	.LVL67:
 597 0360 9528     		cmp	r0, #149
 598 0362 7FF710AF 		ble	.L76
 599 0366 14E7     		b	.L1
 600              	.L123:
 601              		.align	2
 602              	.L122:
 603 0368 00000000 		.word	__stack_chk_guard
 604 036c 00000000 		.word	.LANCHOR0
 605 0370 00000000 		.word	.LANCHOR1
 606 0374 00000000 		.word	.LANCHOR2
 607              	.L115:
 608              		.loc 1 107 0
 609 0378 0220     		movs	r0, #2
 610 037a FFF7FEFF 		bl	get_calibrated_prox
 611              	.LVL68:
 612 037e 0228     		cmp	r0, #2
 613 0380 3FF7CBAE 		bgt	.L49
 614              		.loc 1 107 0 is_stmt 0 discriminator 1
 615 0384 724C     		ldr	r4, .L124
 616 0386 2378     		ldrb	r3, [r4]	@ zero_extendqisi2
 617 0388 002B     		cmp	r3, #0
 618 038a 3FF4C6AE 		beq	.L49
 619              		.loc 1 108 0 is_stmt 1
 620 038e FA21     		movs	r1, #250
 621 0390 4FF4DC70 		mov	r0, #440
 622 0394 FFF7FEFF 		bl	playNote
 623              	.LVL69:
 624              		.loc 1 111 0
 625 0398 0199     		ldr	r1, [sp, #4]
 626 039a 2A68     		ldr	r2, [r5]
 627              		.loc 1 109 0
ARM GAS  C:\Users\filip\AppData\Local\Temp\ccJzur8h.s 			page 12


 628 039c 6D48     		ldr	r0, .L124+4
 629 039e 0023     		movs	r3, #0
 630              		.loc 1 111 0
 631 03a0 9142     		cmp	r1, r2
 632              		.loc 1 109 0
 633 03a2 0370     		strb	r3, [r0]
 634              		.loc 1 110 0
 635 03a4 2370     		strb	r3, [r4]
 636              		.loc 1 111 0
 637 03a6 3FF43FAF 		beq	.L51
 638 03aa 40E0     		b	.L100
 639              	.L120:
 640              		.loc 1 158 0
 641 03ac 0220     		movs	r0, #2
 642 03ae FFF7FEFF 		bl	get_calibrated_prox
 643              	.LVL70:
 644 03b2 0228     		cmp	r0, #2
 645 03b4 3FF7EDAE 		bgt	.L1
 646              		.loc 1 158 0 is_stmt 0 discriminator 1
 647 03b8 654B     		ldr	r3, .L124
 648 03ba 1A78     		ldrb	r2, [r3]	@ zero_extendqisi2
 649 03bc 002A     		cmp	r2, #0
 650 03be 3FF4E8AE 		beq	.L1
 651              		.loc 1 158 0 discriminator 2
 652 03c2 644A     		ldr	r2, .L124+4
 653 03c4 1178     		ldrb	r1, [r2]	@ zero_extendqisi2
 654 03c6 0029     		cmp	r1, #0
 655 03c8 3FF4E3AE 		beq	.L1
 656              		.loc 1 159 0 is_stmt 1
 657 03cc 0024     		movs	r4, #0
 658              		.loc 1 161 0
 659 03ce FA21     		movs	r1, #250
 660 03d0 4FF4DC70 		mov	r0, #440
 661              		.loc 1 159 0
 662 03d4 1470     		strb	r4, [r2]
 663              		.loc 1 160 0
 664 03d6 1C70     		strb	r4, [r3]
 665              		.loc 1 161 0
 666 03d8 FFF7FEFF 		bl	playNote
 667              	.LVL71:
 668              		.loc 1 163 0
 669 03dc 2046     		mov	r0, r4
 670 03de FFF7FEFF 		bl	right_motor_set_pos
 671              	.LVL72:
 672              		.loc 1 164 0
 673 03e2 40F28924 		movw	r4, #649
 674 03e6 01E0     		b	.L77
 675              	.L78:
 676              		.loc 1 165 0
 677 03e8 FFF7FEFF 		bl	go_forward
 678              	.LVL73:
 679              	.L77:
 680              		.loc 1 164 0
 681 03ec FFF7FEFF 		bl	right_motor_get_pos
 682              	.LVL74:
 683 03f0 0028     		cmp	r0, #0
 684 03f2 B8BF     		it	lt
ARM GAS  C:\Users\filip\AppData\Local\Temp\ccJzur8h.s 			page 13


 685 03f4 4042     		rsblt	r0, r0, #0
 686 03f6 A042     		cmp	r0, r4
 687 03f8 F6DD     		ble	.L78
 688 03fa CAE6     		b	.L1
 689              	.L117:
 690              		.loc 1 128 0
 691 03fc 0220     		movs	r0, #2
 692 03fe FFF7FEFF 		bl	get_calibrated_prox
 693              	.LVL75:
 694 0402 0328     		cmp	r0, #3
 695 0404 7FF7A1AE 		ble	.L60
 696              		.loc 1 128 0 is_stmt 0 discriminator 1
 697 0408 514C     		ldr	r4, .L124
 698 040a 2378     		ldrb	r3, [r4]	@ zero_extendqisi2
 699 040c 002B     		cmp	r3, #0
 700 040e 3FF49CAE 		beq	.L60
 701              		.loc 1 129 0 is_stmt 1
 702 0412 FA21     		movs	r1, #250
 703 0414 4FF4DC70 		mov	r0, #440
 704 0418 FFF7FEFF 		bl	playNote
 705              	.LVL76:
 706              		.loc 1 132 0
 707 041c 0199     		ldr	r1, [sp, #4]
 708 041e 2A68     		ldr	r2, [r5]
 709              		.loc 1 130 0
 710 0420 4C48     		ldr	r0, .L124+4
 711 0422 0023     		movs	r3, #0
 712              		.loc 1 132 0
 713 0424 9142     		cmp	r1, r2
 714              		.loc 1 130 0
 715 0426 0370     		strb	r3, [r0]
 716              		.loc 1 131 0
 717 0428 2370     		strb	r3, [r4]
 718              		.loc 1 132 0
 719 042a 3FF40DAF 		beq	.L73
 720              	.L100:
 721              		.loc 1 169 0
 722 042e FFF7FEFF 		bl	__stack_chk_fail
 723              	.LVL77:
 724              	.L118:
 725              		.loc 1 137 0
 726 0432 0220     		movs	r0, #2
 727 0434 FFF7FEFF 		bl	get_calibrated_prox
 728              	.LVL78:
 729 0438 0228     		cmp	r0, #2
 730 043a 3FF792AE 		bgt	.L65
 731              		.loc 1 137 0 is_stmt 0 discriminator 1
 732 043e 444B     		ldr	r3, .L124
 733 0440 1C78     		ldrb	r4, [r3]	@ zero_extendqisi2
 734 0442 002C     		cmp	r4, #0
 735 0444 7FF48DAE 		bne	.L65
 736              		.loc 1 138 0 is_stmt 1
 737 0448 FA21     		movs	r1, #250
 738 044a 4FF4DC70 		mov	r0, #440
 739 044e FFF7FEFF 		bl	playNote
 740              	.LVL79:
 741              		.loc 1 139 0
ARM GAS  C:\Users\filip\AppData\Local\Temp\ccJzur8h.s 			page 14


 742 0452 404B     		ldr	r3, .L124+4
 743              		.loc 1 141 0
 744 0454 2046     		mov	r0, r4
 745              		.loc 1 139 0
 746 0456 1C70     		strb	r4, [r3]
 747              		.loc 1 142 0
 748 0458 40F28924 		movw	r4, #649
 749              		.loc 1 141 0
 750 045c FFF7FEFF 		bl	right_motor_set_pos
 751              	.LVL80:
 752              		.loc 1 142 0
 753 0460 01E0     		b	.L67
 754              	.L68:
 755              		.loc 1 143 0
 756 0462 FFF7FEFF 		bl	go_forward
 757              	.LVL81:
 758              	.L67:
 759              		.loc 1 142 0
 760 0466 FFF7FEFF 		bl	right_motor_get_pos
 761              	.LVL82:
 762 046a 0028     		cmp	r0, #0
 763 046c B8BF     		it	lt
 764 046e 4042     		rsblt	r0, r0, #0
 765 0470 A042     		cmp	r0, r4
 766 0472 F6DD     		ble	.L68
 767 0474 8DE6     		b	.L1
 768              	.L119:
 769              		.loc 1 149 0
 770 0476 0220     		movs	r0, #2
 771 0478 FFF7FEFF 		bl	get_calibrated_prox
 772              	.LVL83:
 773 047c 0228     		cmp	r0, #2
 774 047e 3FF77CAE 		bgt	.L71
 775              		.loc 1 149 0 is_stmt 0 discriminator 1
 776 0482 334B     		ldr	r3, .L124
 777 0484 1A78     		ldrb	r2, [r3]	@ zero_extendqisi2
 778 0486 002A     		cmp	r2, #0
 779 0488 3FF477AE 		beq	.L71
 780              		.loc 1 149 0 discriminator 2
 781 048c 314A     		ldr	r2, .L124+4
 782 048e 1078     		ldrb	r0, [r2]	@ zero_extendqisi2
 783 0490 0028     		cmp	r0, #0
 784 0492 7FF472AE 		bne	.L71
 785              		.loc 1 150 0 is_stmt 1
 786 0496 0124     		movs	r4, #1
 787              		.loc 1 151 0
 788 0498 1870     		strb	r0, [r3]
 789              		.loc 1 152 0
 790 049a FA21     		movs	r1, #250
 791 049c 4FF4DC70 		mov	r0, #440
 792              		.loc 1 150 0
 793 04a0 1470     		strb	r4, [r2]
 794              		.loc 1 152 0
 795 04a2 FFF7FEFF 		bl	playNote
 796              	.LVL84:
 797 04a6 CAE6     		b	.L101
 798              	.L114:
ARM GAS  C:\Users\filip\AppData\Local\Temp\ccJzur8h.s 			page 15


 799              		.loc 1 89 0 discriminator 2
 800 04a8 0520     		movs	r0, #5
 801 04aa FFF7FEFF 		bl	get_calibrated_prox
 802              	.LVL85:
 803              		.loc 1 88 0 discriminator 2
 804 04ae 0E28     		cmp	r0, #14
 805 04b0 3FF717AE 		bgt	.L39
 806              		.loc 1 89 0
 807 04b4 0720     		movs	r0, #7
 808 04b6 FFF7FEFF 		bl	get_calibrated_prox
 809              	.LVL86:
 810 04ba 0E28     		cmp	r0, #14
 811 04bc 3FF711AE 		bgt	.L39
 812              		.loc 1 89 0 is_stmt 0 discriminator 1
 813 04c0 FFF7FEFF 		bl	get_state_celebrate
 814              	.LVL87:
 815 04c4 0028     		cmp	r0, #0
 816 04c6 3FF40CAE 		beq	.L39
 817              		.loc 1 90 0 is_stmt 1
 818 04ca 019A     		ldr	r2, [sp, #4]
 819 04cc 2B68     		ldr	r3, [r5]
 820 04ce 9A42     		cmp	r2, r3
 821 04d0 ADD1     		bne	.L100
 822              		.loc 1 169 0
 823 04d2 03B0     		add	sp, sp, #12
 824              		.cfi_remember_state
 825              		.cfi_def_cfa_offset 12
 826              		@ sp needed
 827 04d4 BDE83040 		pop	{r4, r5, lr}
 828              		.cfi_restore 14
 829              		.cfi_restore 5
 830              		.cfi_restore 4
 831              		.cfi_def_cfa_offset 0
 832              		.loc 1 90 0
 833 04d8 FFF7FEBF 		b	celebrate
 834              	.LVL88:
 835              	.L116:
 836              		.cfi_restore_state
 837              		.loc 1 116 0
 838 04dc 0220     		movs	r0, #2
 839 04de FFF7FEFF 		bl	get_calibrated_prox
 840              	.LVL89:
 841 04e2 0228     		cmp	r0, #2
 842 04e4 3FF725AE 		bgt	.L54
 843              		.loc 1 116 0 is_stmt 0 discriminator 1
 844 04e8 194B     		ldr	r3, .L124
 845 04ea 1C78     		ldrb	r4, [r3]	@ zero_extendqisi2
 846 04ec 002C     		cmp	r4, #0
 847 04ee 7FF420AE 		bne	.L54
 848              		.loc 1 117 0 is_stmt 1
 849 04f2 FA21     		movs	r1, #250
 850 04f4 4FF4DC70 		mov	r0, #440
 851 04f8 FFF7FEFF 		bl	playNote
 852              	.LVL90:
 853              		.loc 1 118 0
 854 04fc 154B     		ldr	r3, .L124+4
 855              		.loc 1 120 0
ARM GAS  C:\Users\filip\AppData\Local\Temp\ccJzur8h.s 			page 16


 856 04fe 2046     		mov	r0, r4
 857              		.loc 1 118 0
 858 0500 1C70     		strb	r4, [r3]
 859              		.loc 1 121 0
 860 0502 40F28924 		movw	r4, #649
 861              		.loc 1 120 0
 862 0506 FFF7FEFF 		bl	right_motor_set_pos
 863              	.LVL91:
 864              		.loc 1 121 0
 865 050a 01E0     		b	.L56
 866              	.L57:
 867              		.loc 1 122 0
 868 050c FFF7FEFF 		bl	go_forward
 869              	.LVL92:
 870              	.L56:
 871              		.loc 1 121 0
 872 0510 FFF7FEFF 		bl	right_motor_get_pos
 873              	.LVL93:
 874 0514 0028     		cmp	r0, #0
 875 0516 B8BF     		it	lt
 876 0518 4042     		rsblt	r0, r0, #0
 877 051a A042     		cmp	r0, r4
 878 051c F6DD     		ble	.L57
 879 051e 38E6     		b	.L1
 880              	.L121:
 881              		.loc 1 51 0 discriminator 1
 882 0520 0020     		movs	r0, #0
 883 0522 FFF7FEFF 		bl	get_calibrated_prox
 884              	.LVL94:
 885              		.loc 1 50 0 discriminator 1
 886 0526 1D28     		cmp	r0, #29
 887 0528 05DD     		ble	.L19
 888              		.loc 1 51 0
 889 052a 0720     		movs	r0, #7
 890 052c FFF7FEFF 		bl	get_calibrated_prox
 891              	.LVL95:
 892 0530 1D28     		cmp	r0, #29
 893 0532 3FF79FAE 		bgt	.L16
 894              	.L19:
 895              		.loc 1 52 0
 896 0536 FFF7FEFF 		bl	calibrate_pos_left
 897              	.LVL96:
 898              		.loc 1 53 0
 899 053a 074B     		ldr	r3, .L124+8
 900 053c 0122     		movs	r2, #1
 901 053e 1A70     		strb	r2, [r3]
 902 0540 27E6     		b	.L1
 903              	.L20:
 904              		.loc 1 62 0
 905 0542 FFF7FEFF 		bl	go_forward
 906              	.LVL97:
 907              		.loc 1 63 0
 908 0546 044B     		ldr	r3, .L124+8
 909 0548 0022     		movs	r2, #0
 910 054a 1A70     		strb	r2, [r3]
 911 054c 21E6     		b	.L1
 912              	.L125:
ARM GAS  C:\Users\filip\AppData\Local\Temp\ccJzur8h.s 			page 17


 913 054e 00BF     		.align	2
 914              	.L124:
 915 0550 00000000 		.word	.LANCHOR1
 916 0554 00000000 		.word	.LANCHOR2
 917 0558 00000000 		.word	.LANCHOR0
 918              		.cfi_endproc
 919              	.LFE256:
 920              		.size	proximity, .-proximity
 921              		.section	.bss.impasse,"aw",%nobits
 922              		.set	.LANCHOR1,. + 0
 923              		.type	impasse, %object
 924              		.size	impasse, 1
 925              	impasse:
 926 0000 00       		.space	1
 927              		.section	.bss.redress,"aw",%nobits
 928              		.set	.LANCHOR0,. + 0
 929              		.type	redress, %object
 930              		.size	redress, 1
 931              	redress:
 932 0000 00       		.space	1
 933              		.section	.bss.virage,"aw",%nobits
 934              		.set	.LANCHOR2,. + 0
 935              		.type	virage, %object
 936              		.size	virage, 1
 937              	virage:
 938 0000 00       		.space	1
 939              		.text
 940              	.Letext0:
 941              		.file 2 "c:\\users\\filip\\onedrive\\bureau\\eclipse_e-puck2\\tools\\gcc-arm-none-eabi-7-2017-q4-m
 942              		.file 3 "c:\\users\\filip\\onedrive\\bureau\\eclipse_e-puck2\\tools\\gcc-arm-none-eabi-7-2017-q4-m
 943              		.file 4 "c:\\users\\filip\\onedrive\\bureau\\eclipse_e-puck2\\tools\\gcc-arm-none-eabi-7-2017-q4-m
 944              		.file 5 "c:\\users\\filip\\onedrive\\bureau\\eclipse_e-puck2\\tools\\gcc-arm-none-eabi-7-2017-q4-m
 945              		.file 6 "c:\\users\\filip\\onedrive\\bureau\\eclipse_e-puck2\\tools\\gcc-arm-none-eabi-7-2017-q4-m
 946              		.file 7 "c:\\users\\filip\\onedrive\\bureau\\eclipse_e-puck2\\tools\\gcc-arm-none-eabi-7-2017-q4-m
 947              		.file 8 "c:\\users\\filip\\onedrive\\bureau\\eclipse_e-puck2\\tools\\gcc-arm-none-eabi-7-2017-q4-m
 948              		.file 9 "../../lib/e-puck2_main-processor/ChibiOS//os/rt/ports/ARMCMx/compilers/GCC/chtypes.h"
 949              		.file 10 "../../lib/e-puck2_main-processor/ChibiOS//os/rt/include/chsystypes.h"
 950              		.file 11 "../../lib/e-puck2_main-processor/ChibiOS//os/rt/include/chschd.h"
 951              		.file 12 "../../lib/e-puck2_main-processor/ChibiOS//os/ext/CMSIS/include/core_cm4.h"
 952              		.file 13 "../../lib/e-puck2_main-processor/ChibiOS//os/ext/CMSIS/ST/system_stm32f4xx.h"
 953              		.file 14 "../../lib/e-puck2_main-processor/ChibiOS//os/ext/CMSIS/ST/stm32f407xx.h"
 954              		.file 15 "../../lib/e-puck2_main-processor/ChibiOS//os/rt/ports/ARMCMx/chcore.h"
 955              		.file 16 "../../lib/e-puck2_main-processor/ChibiOS//os/rt/ports/ARMCMx/chcore_v7m.h"
 956              		.file 17 "../../lib/e-puck2_main-processor/ChibiOS//os/rt/include/chdebug.h"
 957              		.file 18 "../../lib/e-puck2_main-processor/ChibiOS//os/rt/include/chtm.h"
 958              		.file 19 "../../lib/e-puck2_main-processor/ChibiOS//os/rt/include/chstats.h"
 959              		.file 20 "../../lib/e-puck2_main-processor/ChibiOS//os/rt/include/chsem.h"
 960              		.file 21 "../../lib/e-puck2_main-processor/ChibiOS//os/rt/include/chmtx.h"
 961              		.file 22 "../../lib/e-puck2_main-processor/ChibiOS//os/rt/include/chregistry.h"
 962              		.file 23 "../../lib/e-puck2_main-processor/ChibiOS//os/rt/include/chevents.h"
 963              		.file 24 "../../lib/e-puck2_main-processor/ChibiOS//os/rt/include/chqueues.h"
 964              		.file 25 "../../lib/e-puck2_main-processor/ChibiOS//os/hal/ports/STM32/STM32F4xx/stm32_dma.h"
 965              		.file 26 "../../lib/e-puck2_main-processor/ChibiOS//os/hal/include/hal_ioblock.h"
 966              		.file 27 "../../lib/e-puck2_main-processor/ChibiOS//os/hal/ports/STM32/LLD/GPIOv2/pal_lld.h"
 967              		.file 28 "../../lib/e-puck2_main-processor/ChibiOS//os/hal/include/adc.h"
 968              		.file 29 "../../lib/e-puck2_main-processor/ChibiOS//os/hal/ports/STM32/STM32F4xx/adc_lld.h"
 969              		.file 30 "../../lib/e-puck2_main-processor/ChibiOS//os/hal/include/can.h"
ARM GAS  C:\Users\filip\AppData\Local\Temp\ccJzur8h.s 			page 18


 970              		.file 31 "../../lib/e-puck2_main-processor/ChibiOS//os/hal/ports/STM32/LLD/can_lld.h"
 971              		.file 32 "../../lib/e-puck2_main-processor/ChibiOS//os/hal/include/dac.h"
 972              		.file 33 "../../lib/e-puck2_main-processor/ChibiOS//os/hal/ports/STM32/LLD/DACv1/dac_lld.h"
 973              		.file 34 "../../lib/e-puck2_main-processor/ChibiOS//os/hal/include/ext.h"
 974              		.file 35 "../../lib/e-puck2_main-processor/ChibiOS//os/hal/ports/STM32/LLD/ext_lld.h"
 975              		.file 36 "../../lib/e-puck2_main-processor/ChibiOS//os/hal/include/gpt.h"
 976              		.file 37 "../../lib/e-puck2_main-processor/ChibiOS//os/hal/ports/STM32/LLD/TIMv1/gpt_lld.h"
 977              		.file 38 "../../lib/e-puck2_main-processor/ChibiOS//os/hal/ports/STM32/LLD/TIMv1/stm32_tim.h"
 978              		.file 39 "../../lib/e-puck2_main-processor/ChibiOS//os/hal/include/i2c.h"
 979              		.file 40 "../../lib/e-puck2_main-processor/ChibiOS//os/hal/ports/STM32/LLD/I2Cv1/i2c_lld.h"
 980              		.file 41 "../../lib/e-puck2_main-processor/ChibiOS//os/hal/include/i2s.h"
 981              		.file 42 "../../lib/e-puck2_main-processor/ChibiOS//os/hal/ports/STM32/LLD/SPIv1/i2s_lld.h"
 982              		.file 43 "../../lib/e-puck2_main-processor/ChibiOS//os/hal/include/pwm.h"
 983              		.file 44 "../../lib/e-puck2_main-processor/ChibiOS//os/hal/ports/STM32/LLD/TIMv1/pwm_lld.h"
 984              		.file 45 "../../lib/e-puck2_main-processor/ChibiOS//os/hal/include/serial.h"
 985              		.file 46 "../../lib/e-puck2_main-processor/ChibiOS//os/hal/ports/STM32/LLD/USARTv1/serial_lld.h"
 986              		.file 47 "../../lib/e-puck2_main-processor/ChibiOS//os/hal/include/sdc.h"
 987              		.file 48 "../../lib/e-puck2_main-processor/ChibiOS//os/hal/ports/STM32/LLD/sdc_lld.h"
 988              		.file 49 "../../lib/e-puck2_main-processor/ChibiOS//os/hal/include/spi.h"
 989              		.file 50 "../../lib/e-puck2_main-processor/ChibiOS//os/hal/ports/STM32/LLD/SPIv1/spi_lld.h"
 990              		.file 51 "../../lib/e-puck2_main-processor/ChibiOS//os/hal/include/usb.h"
 991              		.file 52 "../../lib/e-puck2_main-processor/ChibiOS//os/hal/ports/STM32/LLD/OTGv1/usb_lld.h"
 992              		.file 53 "../../lib/e-puck2_main-processor/ChibiOS//os/hal/ports/STM32/LLD/OTGv1/stm32_otg.h"
 993              		.file 54 "../../lib/e-puck2_main-processor/src/sensors/proximity.h"
 994              		.file 55 "../../lib/e-puck2_main-processor/src/motors.h"
 995              		.file 56 "./motor.h"
 996              		.file 57 "../../lib/e-puck2_main-processor/src/audio/play_melody.h"
 997              		.file 58 "./audio_processing.h"