ARM GAS  C:\Users\filip\AppData\Local\Temp\ccmkCy6H.s 			page 1


   1              		.cpu cortex-m4
   2              		.eabi_attribute 27, 1
   3              		.eabi_attribute 28, 1
   4              		.eabi_attribute 20, 1
   5              		.eabi_attribute 21, 1
   6              		.eabi_attribute 23, 3
   7              		.eabi_attribute 24, 1
   8              		.eabi_attribute 25, 1
   9              		.eabi_attribute 26, 1
  10              		.eabi_attribute 30, 2
  11              		.eabi_attribute 34, 1
  12              		.eabi_attribute 18, 4
  13              		.file	"motor.c"
  14              		.text
  15              	.Ltext0:
  16              		.cfi_sections	.debug_frame
  17              		.section	.text.turn.part.0,"ax",%progbits
  18              		.align	1
  19              		.p2align 4,,15
  20              		.syntax unified
  21              		.thumb
  22              		.thumb_func
  23              		.fpu fpv4-sp-d16
  24              		.type	turn.part.0, %function
  25              	turn.part.0:
  26              	.LFB270:
  27              		.file 1 "motor.c"
  28              		.loc 1 28 0
  29              		.cfi_startproc
  30              		@ args = 0, pretend = 0, frame = 8
  31              		@ frame_needed = 0, uses_anonymous_args = 0
  32 0000 10B5     		push	{r4, lr}
  33              		.cfi_def_cfa_offset 8
  34              		.cfi_offset 4, -8
  35              		.cfi_offset 14, -4
  36 0002 0B4C     		ldr	r4, .L7
  37 0004 82B0     		sub	sp, sp, #8
  38              		.cfi_def_cfa_offset 16
  39              		.loc 1 28 0
  40 0006 2368     		ldr	r3, [r4]
  41 0008 0193     		str	r3, [sp, #4]
  42              		.loc 1 30 0
  43 000a 0120     		movs	r0, #1
  44 000c FFF7FEFF 		bl	set_body_led
  45              	.LVL0:
  46              		.loc 1 31 0
  47 0010 0848     		ldr	r0, .L7+4
  48 0012 FFF7FEFF 		bl	left_motor_set_speed
  49              	.LVL1:
  50              		.loc 1 32 0
  51 0016 019A     		ldr	r2, [sp, #4]
  52 0018 2368     		ldr	r3, [r4]
  53 001a 9A42     		cmp	r2, r3
  54 001c 06D1     		bne	.L6
  55 001e 4FF4C870 		mov	r0, #400
  56              		.loc 1 34 0
  57 0022 02B0     		add	sp, sp, #8
ARM GAS  C:\Users\filip\AppData\Local\Temp\ccmkCy6H.s 			page 2


  58              		.cfi_remember_state
  59              		.cfi_def_cfa_offset 8
  60              		@ sp needed
  61 0024 BDE81040 		pop	{r4, lr}
  62              		.cfi_restore 14
  63              		.cfi_restore 4
  64              		.cfi_def_cfa_offset 0
  65              		.loc 1 32 0
  66 0028 FFF7FEBF 		b	right_motor_set_speed
  67              	.LVL2:
  68              	.L6:
  69              		.cfi_restore_state
  70 002c FFF7FEFF 		bl	__stack_chk_fail
  71              	.LVL3:
  72              	.L8:
  73              		.align	2
  74              	.L7:
  75 0030 00000000 		.word	__stack_chk_guard
  76 0034 70FEFFFF 		.word	-400
  77              		.cfi_endproc
  78              	.LFE270:
  79              		.size	turn.part.0, .-turn.part.0
  80              		.section	.text.turn,"ax",%progbits
  81              		.align	1
  82              		.p2align 4,,15
  83              		.global	turn
  84              		.syntax unified
  85              		.thumb
  86              		.thumb_func
  87              		.fpu fpv4-sp-d16
  88              		.type	turn, %function
  89              	turn:
  90              	.LFB256:
  91              		.loc 1 28 0
  92              		.cfi_startproc
  93              		@ args = 0, pretend = 0, frame = 8
  94              		@ frame_needed = 0, uses_anonymous_args = 0
  95 0000 00B5     		push	{lr}
  96              		.cfi_def_cfa_offset 4
  97              		.cfi_offset 14, -4
  98              		.loc 1 29 0
  99 0002 0C4A     		ldr	r2, .L16
 100              		.loc 1 28 0
 101 0004 0C4B     		ldr	r3, .L16+4
 102              		.loc 1 29 0
 103 0006 1278     		ldrb	r2, [r2]	@ zero_extendqisi2
 104              		.loc 1 28 0
 105 0008 1968     		ldr	r1, [r3]
 106 000a 83B0     		sub	sp, sp, #12
 107              		.cfi_def_cfa_offset 16
 108              		.loc 1 29 0
 109 000c 012A     		cmp	r2, #1
 110              		.loc 1 28 0
 111 000e 0191     		str	r1, [sp, #4]
 112 0010 019A     		ldr	r2, [sp, #4]
 113 0012 1B68     		ldr	r3, [r3]
 114              		.loc 1 29 0
ARM GAS  C:\Users\filip\AppData\Local\Temp\ccmkCy6H.s 			page 3


 115 0014 04D0     		beq	.L15
 116              		.loc 1 34 0
 117 0016 9A42     		cmp	r2, r3
 118 0018 09D1     		bne	.L14
 119 001a 03B0     		add	sp, sp, #12
 120              		.cfi_remember_state
 121              		.cfi_def_cfa_offset 4
 122              		@ sp needed
 123 001c 5DF804FB 		ldr	pc, [sp], #4
 124              	.L15:
 125              		.cfi_restore_state
 126 0020 9A42     		cmp	r2, r3
 127 0022 04D1     		bne	.L14
 128 0024 03B0     		add	sp, sp, #12
 129              		.cfi_remember_state
 130              		.cfi_def_cfa_offset 4
 131              		@ sp needed
 132 0026 5DF804EB 		ldr	lr, [sp], #4
 133              		.cfi_restore 14
 134              		.cfi_def_cfa_offset 0
 135 002a FFF7FEBF 		b	turn.part.0
 136              	.LVL4:
 137              	.L14:
 138              		.cfi_restore_state
 139 002e FFF7FEFF 		bl	__stack_chk_fail
 140              	.LVL5:
 141              	.L17:
 142 0032 00BF     		.align	2
 143              	.L16:
 144 0034 00000000 		.word	.LANCHOR0
 145 0038 00000000 		.word	__stack_chk_guard
 146              		.cfi_endproc
 147              	.LFE256:
 148              		.size	turn, .-turn
 149              		.section	.text.turn_back,"ax",%progbits
 150              		.align	1
 151              		.p2align 4,,15
 152              		.global	turn_back
 153              		.syntax unified
 154              		.thumb
 155              		.thumb_func
 156              		.fpu fpv4-sp-d16
 157              		.type	turn_back, %function
 158              	turn_back:
 159              	.LFB257:
 160              		.loc 1 37 0
 161              		.cfi_startproc
 162              		@ args = 0, pretend = 0, frame = 8
 163              		@ frame_needed = 0, uses_anonymous_args = 0
 164 0000 70B5     		push	{r4, r5, r6, lr}
 165              		.cfi_def_cfa_offset 16
 166              		.cfi_offset 4, -16
 167              		.cfi_offset 5, -12
 168              		.cfi_offset 6, -8
 169              		.cfi_offset 14, -4
 170              		.loc 1 38 0
 171 0002 1A4B     		ldr	r3, .L27
ARM GAS  C:\Users\filip\AppData\Local\Temp\ccmkCy6H.s 			page 4


 172              		.loc 1 37 0
 173 0004 1A4C     		ldr	r4, .L27+4
 174              		.loc 1 38 0
 175 0006 1878     		ldrb	r0, [r3]	@ zero_extendqisi2
 176              		.loc 1 37 0
 177 0008 2368     		ldr	r3, [r4]
 178 000a 82B0     		sub	sp, sp, #8
 179              		.cfi_def_cfa_offset 24
 180              		.loc 1 38 0
 181 000c 0128     		cmp	r0, #1
 182              		.loc 1 37 0
 183 000e 0193     		str	r3, [sp, #4]
 184              		.loc 1 38 0
 185 0010 09D0     		beq	.L25
 186              	.L19:
 187              		.loc 1 49 0
 188 0012 019A     		ldr	r2, [sp, #4]
 189 0014 2368     		ldr	r3, [r4]
 190 0016 9A42     		cmp	r2, r3
 191 0018 26D1     		bne	.L26
 192 001a 0020     		movs	r0, #0
 193              		.loc 1 50 0
 194 001c 02B0     		add	sp, sp, #8
 195              		.cfi_remember_state
 196              		.cfi_def_cfa_offset 16
 197              		@ sp needed
 198 001e BDE87040 		pop	{r4, r5, r6, lr}
 199              		.cfi_restore 14
 200              		.cfi_restore 6
 201              		.cfi_restore 5
 202              		.cfi_restore 4
 203              		.cfi_def_cfa_offset 0
 204              		.loc 1 49 0
 205 0022 FFF7FEBF 		b	right_motor_set_pos
 206              	.LVL6:
 207              	.L25:
 208              		.cfi_restore_state
 209              		.loc 1 39 0
 210 0026 FFF7FEFF 		bl	set_body_led
 211              	.LVL7:
 212              		.loc 1 40 0
 213 002a 0020     		movs	r0, #0
 214 002c FFF7FEFF 		bl	right_motor_set_pos
 215              	.LVL8:
 216              		.loc 1 41 0
 217 0030 40F28925 		movw	r5, #649
 218              		.loc 1 42 0
 219 0034 0F4E     		ldr	r6, .L27+8
 220              		.loc 1 41 0
 221 0036 06E0     		b	.L20
 222              	.L21:
 223              		.loc 1 42 0
 224 0038 3046     		mov	r0, r6
 225 003a FFF7FEFF 		bl	left_motor_set_speed
 226              	.LVL9:
 227              		.loc 1 43 0
 228 003e 4FF4C870 		mov	r0, #400
ARM GAS  C:\Users\filip\AppData\Local\Temp\ccmkCy6H.s 			page 5


 229 0042 FFF7FEFF 		bl	right_motor_set_speed
 230              	.LVL10:
 231              	.L20:
 232              		.loc 1 41 0
 233 0046 FFF7FEFF 		bl	right_motor_get_pos
 234              	.LVL11:
 235 004a 0028     		cmp	r0, #0
 236 004c B8BF     		it	lt
 237 004e 4042     		rsblt	r0, r0, #0
 238 0050 A842     		cmp	r0, r5
 239 0052 F1DD     		ble	.L21
 240              		.loc 1 45 0
 241 0054 0020     		movs	r0, #0
 242 0056 FFF7FEFF 		bl	left_motor_set_speed
 243              	.LVL12:
 244              		.loc 1 46 0
 245 005a 0020     		movs	r0, #0
 246 005c FFF7FEFF 		bl	right_motor_set_speed
 247              	.LVL13:
 248              		.loc 1 47 0
 249 0060 0020     		movs	r0, #0
 250 0062 FFF7FEFF 		bl	set_body_led
 251              	.LVL14:
 252 0066 D4E7     		b	.L19
 253              	.L26:
 254              		.loc 1 49 0
 255 0068 FFF7FEFF 		bl	__stack_chk_fail
 256              	.LVL15:
 257              	.L28:
 258              		.align	2
 259              	.L27:
 260 006c 00000000 		.word	.LANCHOR0
 261 0070 00000000 		.word	__stack_chk_guard
 262 0074 70FEFFFF 		.word	-400
 263              		.cfi_endproc
 264              	.LFE257:
 265              		.size	turn_back, .-turn_back
 266              		.section	.text.quarter_turn_right,"ax",%progbits
 267              		.align	1
 268              		.p2align 4,,15
 269              		.global	quarter_turn_right
 270              		.syntax unified
 271              		.thumb
 272              		.thumb_func
 273              		.fpu fpv4-sp-d16
 274              		.type	quarter_turn_right, %function
 275              	quarter_turn_right:
 276              	.LFB258:
 277              		.loc 1 53 0
 278              		.cfi_startproc
 279              		@ args = 0, pretend = 0, frame = 8
 280              		@ frame_needed = 0, uses_anonymous_args = 0
 281 0000 30B5     		push	{r4, r5, lr}
 282              		.cfi_def_cfa_offset 12
 283              		.cfi_offset 4, -12
 284              		.cfi_offset 5, -8
 285              		.cfi_offset 14, -4
ARM GAS  C:\Users\filip\AppData\Local\Temp\ccmkCy6H.s 			page 6


 286              		.loc 1 54 0
 287 0002 224B     		ldr	r3, .L40
 288              		.loc 1 53 0
 289 0004 224C     		ldr	r4, .L40+4
 290              		.loc 1 54 0
 291 0006 1978     		ldrb	r1, [r3]	@ zero_extendqisi2
 292              		.loc 1 53 0
 293 0008 2368     		ldr	r3, [r4]
 294 000a 83B0     		sub	sp, sp, #12
 295              		.cfi_def_cfa_offset 24
 296              		.loc 1 54 0
 297 000c 0129     		cmp	r1, #1
 298              		.loc 1 53 0
 299 000e 0193     		str	r3, [sp, #4]
 300              		.loc 1 54 0
 301 0010 09D0     		beq	.L38
 302              	.L30:
 303              		.loc 1 69 0
 304 0012 019A     		ldr	r2, [sp, #4]
 305 0014 2368     		ldr	r3, [r4]
 306 0016 9A42     		cmp	r2, r3
 307 0018 35D1     		bne	.L39
 308 001a 0020     		movs	r0, #0
 309              		.loc 1 70 0
 310 001c 03B0     		add	sp, sp, #12
 311              		.cfi_remember_state
 312              		.cfi_def_cfa_offset 12
 313              		@ sp needed
 314 001e BDE83040 		pop	{r4, r5, lr}
 315              		.cfi_restore 14
 316              		.cfi_restore 5
 317              		.cfi_restore 4
 318              		.cfi_def_cfa_offset 0
 319              		.loc 1 69 0
 320 0022 FFF7FEBF 		b	right_motor_set_pos
 321              	.LVL16:
 322              	.L38:
 323              		.cfi_restore_state
 324              		.loc 1 55 0
 325 0026 0846     		mov	r0, r1
 326 0028 FFF7FEFF 		bl	set_led
 327              	.LVL17:
 328              		.loc 1 56 0
 329 002c 0020     		movs	r0, #0
 330 002e FFF7FEFF 		bl	right_motor_set_pos
 331              	.LVL18:
 332              		.loc 1 59 0
 333 0032 184D     		ldr	r5, .L40+8
 334              		.loc 1 57 0
 335 0034 06E0     		b	.L31
 336              	.L32:
 337              		.loc 1 58 0
 338 0036 4FF4C870 		mov	r0, #400
 339 003a FFF7FEFF 		bl	left_motor_set_speed
 340              	.LVL19:
 341              		.loc 1 59 0
 342 003e 2846     		mov	r0, r5
ARM GAS  C:\Users\filip\AppData\Local\Temp\ccmkCy6H.s 			page 7


 343 0040 FFF7FEFF 		bl	right_motor_set_speed
 344              	.LVL20:
 345              	.L31:
 346              		.loc 1 57 0
 347 0044 FFF7FEFF 		bl	right_motor_get_pos
 348              	.LVL21:
 349 0048 0028     		cmp	r0, #0
 350 004a B8BF     		it	lt
 351 004c 4042     		rsblt	r0, r0, #0
 352 004e B0F5A27F 		cmp	r0, #324
 353 0052 F0DD     		ble	.L32
 354              		.loc 1 62 0
 355 0054 0020     		movs	r0, #0
 356 0056 FFF7FEFF 		bl	right_motor_set_pos
 357              	.LVL22:
 358              		.loc 1 63 0
 359 005a 07E0     		b	.L33
 360              	.L34:
 361              		.loc 1 64 0
 362 005c 4FF4C870 		mov	r0, #400
 363 0060 FFF7FEFF 		bl	left_motor_set_speed
 364              	.LVL23:
 365              		.loc 1 65 0
 366 0064 4FF4C870 		mov	r0, #400
 367 0068 FFF7FEFF 		bl	right_motor_set_speed
 368              	.LVL24:
 369              	.L33:
 370              		.loc 1 63 0
 371 006c FFF7FEFF 		bl	right_motor_get_pos
 372              	.LVL25:
 373 0070 0028     		cmp	r0, #0
 374 0072 B8BF     		it	lt
 375 0074 4042     		rsblt	r0, r0, #0
 376 0076 B0F5E17F 		cmp	r0, #450
 377 007a EFDB     		blt	.L34
 378              		.loc 1 67 0
 379 007c 0021     		movs	r1, #0
 380 007e 0120     		movs	r0, #1
 381 0080 FFF7FEFF 		bl	set_led
 382              	.LVL26:
 383 0084 C5E7     		b	.L30
 384              	.L39:
 385              		.loc 1 69 0
 386 0086 FFF7FEFF 		bl	__stack_chk_fail
 387              	.LVL27:
 388              	.L41:
 389 008a 00BF     		.align	2
 390              	.L40:
 391 008c 00000000 		.word	.LANCHOR0
 392 0090 00000000 		.word	__stack_chk_guard
 393 0094 70FEFFFF 		.word	-400
 394              		.cfi_endproc
 395              	.LFE258:
 396              		.size	quarter_turn_right, .-quarter_turn_right
 397              		.section	.text.quarter_turn_left,"ax",%progbits
 398              		.align	1
 399              		.p2align 4,,15
ARM GAS  C:\Users\filip\AppData\Local\Temp\ccmkCy6H.s 			page 8


 400              		.global	quarter_turn_left
 401              		.syntax unified
 402              		.thumb
 403              		.thumb_func
 404              		.fpu fpv4-sp-d16
 405              		.type	quarter_turn_left, %function
 406              	quarter_turn_left:
 407              	.LFB259:
 408              		.loc 1 73 0
 409              		.cfi_startproc
 410              		@ args = 0, pretend = 0, frame = 8
 411              		@ frame_needed = 0, uses_anonymous_args = 0
 412 0000 30B5     		push	{r4, r5, lr}
 413              		.cfi_def_cfa_offset 12
 414              		.cfi_offset 4, -12
 415              		.cfi_offset 5, -8
 416              		.cfi_offset 14, -4
 417              		.loc 1 74 0
 418 0002 224B     		ldr	r3, .L53
 419              		.loc 1 73 0
 420 0004 224C     		ldr	r4, .L53+4
 421              		.loc 1 74 0
 422 0006 1978     		ldrb	r1, [r3]	@ zero_extendqisi2
 423              		.loc 1 73 0
 424 0008 2368     		ldr	r3, [r4]
 425 000a 83B0     		sub	sp, sp, #12
 426              		.cfi_def_cfa_offset 24
 427              		.loc 1 74 0
 428 000c 0129     		cmp	r1, #1
 429              		.loc 1 73 0
 430 000e 0193     		str	r3, [sp, #4]
 431              		.loc 1 74 0
 432 0010 09D0     		beq	.L51
 433              	.L43:
 434              		.loc 1 89 0
 435 0012 019A     		ldr	r2, [sp, #4]
 436 0014 2368     		ldr	r3, [r4]
 437 0016 9A42     		cmp	r2, r3
 438 0018 35D1     		bne	.L52
 439 001a 0020     		movs	r0, #0
 440              		.loc 1 90 0
 441 001c 03B0     		add	sp, sp, #12
 442              		.cfi_remember_state
 443              		.cfi_def_cfa_offset 12
 444              		@ sp needed
 445 001e BDE83040 		pop	{r4, r5, lr}
 446              		.cfi_restore 14
 447              		.cfi_restore 5
 448              		.cfi_restore 4
 449              		.cfi_def_cfa_offset 0
 450              		.loc 1 89 0
 451 0022 FFF7FEBF 		b	right_motor_set_pos
 452              	.LVL28:
 453              	.L51:
 454              		.cfi_restore_state
 455              		.loc 1 75 0
 456 0026 0320     		movs	r0, #3
ARM GAS  C:\Users\filip\AppData\Local\Temp\ccmkCy6H.s 			page 9


 457 0028 FFF7FEFF 		bl	set_led
 458              	.LVL29:
 459              		.loc 1 76 0
 460 002c 0020     		movs	r0, #0
 461 002e FFF7FEFF 		bl	right_motor_set_pos
 462              	.LVL30:
 463              		.loc 1 78 0
 464 0032 184D     		ldr	r5, .L53+8
 465              		.loc 1 77 0
 466 0034 06E0     		b	.L44
 467              	.L45:
 468              		.loc 1 78 0
 469 0036 2846     		mov	r0, r5
 470 0038 FFF7FEFF 		bl	left_motor_set_speed
 471              	.LVL31:
 472              		.loc 1 79 0
 473 003c 4FF4C870 		mov	r0, #400
 474 0040 FFF7FEFF 		bl	right_motor_set_speed
 475              	.LVL32:
 476              	.L44:
 477              		.loc 1 77 0
 478 0044 FFF7FEFF 		bl	right_motor_get_pos
 479              	.LVL33:
 480 0048 0028     		cmp	r0, #0
 481 004a B8BF     		it	lt
 482 004c 4042     		rsblt	r0, r0, #0
 483 004e B0F5A27F 		cmp	r0, #324
 484 0052 F0DD     		ble	.L45
 485              		.loc 1 82 0
 486 0054 0020     		movs	r0, #0
 487 0056 FFF7FEFF 		bl	right_motor_set_pos
 488              	.LVL34:
 489              		.loc 1 83 0
 490 005a 07E0     		b	.L46
 491              	.L47:
 492              		.loc 1 84 0
 493 005c 4FF4C870 		mov	r0, #400
 494 0060 FFF7FEFF 		bl	left_motor_set_speed
 495              	.LVL35:
 496              		.loc 1 85 0
 497 0064 4FF4C870 		mov	r0, #400
 498 0068 FFF7FEFF 		bl	right_motor_set_speed
 499              	.LVL36:
 500              	.L46:
 501              		.loc 1 83 0
 502 006c FFF7FEFF 		bl	right_motor_get_pos
 503              	.LVL37:
 504 0070 0028     		cmp	r0, #0
 505 0072 B8BF     		it	lt
 506 0074 4042     		rsblt	r0, r0, #0
 507 0076 B0F5E17F 		cmp	r0, #450
 508 007a EFDB     		blt	.L47
 509              		.loc 1 87 0
 510 007c 0021     		movs	r1, #0
 511 007e 0320     		movs	r0, #3
 512 0080 FFF7FEFF 		bl	set_led
 513              	.LVL38:
ARM GAS  C:\Users\filip\AppData\Local\Temp\ccmkCy6H.s 			page 10


 514 0084 C5E7     		b	.L43
 515              	.L52:
 516              		.loc 1 89 0
 517 0086 FFF7FEFF 		bl	__stack_chk_fail
 518              	.LVL39:
 519              	.L54:
 520 008a 00BF     		.align	2
 521              	.L53:
 522 008c 00000000 		.word	.LANCHOR0
 523 0090 00000000 		.word	__stack_chk_guard
 524 0094 70FEFFFF 		.word	-400
 525              		.cfi_endproc
 526              	.LFE259:
 527              		.size	quarter_turn_left, .-quarter_turn_left
 528              		.section	.text.go_forward,"ax",%progbits
 529              		.align	1
 530              		.p2align 4,,15
 531              		.global	go_forward
 532              		.syntax unified
 533              		.thumb
 534              		.thumb_func
 535              		.fpu fpv4-sp-d16
 536              		.type	go_forward, %function
 537              	go_forward:
 538              	.LFB260:
 539              		.loc 1 93 0
 540              		.cfi_startproc
 541              		@ args = 0, pretend = 0, frame = 8
 542              		@ frame_needed = 0, uses_anonymous_args = 0
 543 0000 10B5     		push	{r4, lr}
 544              		.cfi_def_cfa_offset 8
 545              		.cfi_offset 4, -8
 546              		.cfi_offset 14, -4
 547              		.loc 1 94 0
 548 0002 0F4B     		ldr	r3, .L62
 549              		.loc 1 93 0
 550 0004 0F4C     		ldr	r4, .L62+4
 551              		.loc 1 94 0
 552 0006 1B78     		ldrb	r3, [r3]	@ zero_extendqisi2
 553              		.loc 1 93 0
 554 0008 2268     		ldr	r2, [r4]
 555 000a 82B0     		sub	sp, sp, #8
 556              		.cfi_def_cfa_offset 16
 557              		.loc 1 94 0
 558 000c 012B     		cmp	r3, #1
 559              		.loc 1 93 0
 560 000e 0192     		str	r2, [sp, #4]
 561              		.loc 1 94 0
 562 0010 05D0     		beq	.L61
 563              		.loc 1 98 0
 564 0012 019A     		ldr	r2, [sp, #4]
 565 0014 2368     		ldr	r3, [r4]
 566 0016 9A42     		cmp	r2, r3
 567 0018 10D1     		bne	.L60
 568 001a 02B0     		add	sp, sp, #8
 569              		.cfi_remember_state
 570              		.cfi_def_cfa_offset 8
ARM GAS  C:\Users\filip\AppData\Local\Temp\ccmkCy6H.s 			page 11


 571              		@ sp needed
 572 001c 10BD     		pop	{r4, pc}
 573              	.L61:
 574              		.cfi_restore_state
 575              		.loc 1 95 0
 576 001e 4FF4C870 		mov	r0, #400
 577 0022 FFF7FEFF 		bl	left_motor_set_speed
 578              	.LVL40:
 579              		.loc 1 96 0
 580 0026 019A     		ldr	r2, [sp, #4]
 581 0028 2368     		ldr	r3, [r4]
 582 002a 9A42     		cmp	r2, r3
 583 002c 06D1     		bne	.L60
 584 002e 4FF4C870 		mov	r0, #400
 585              		.loc 1 98 0
 586 0032 02B0     		add	sp, sp, #8
 587              		.cfi_remember_state
 588              		.cfi_def_cfa_offset 8
 589              		@ sp needed
 590 0034 BDE81040 		pop	{r4, lr}
 591              		.cfi_restore 14
 592              		.cfi_restore 4
 593              		.cfi_def_cfa_offset 0
 594              		.loc 1 96 0
 595 0038 FFF7FEBF 		b	right_motor_set_speed
 596              	.LVL41:
 597              	.L60:
 598              		.cfi_restore_state
 599              		.loc 1 98 0
 600 003c FFF7FEFF 		bl	__stack_chk_fail
 601              	.LVL42:
 602              	.L63:
 603              		.align	2
 604              	.L62:
 605 0040 00000000 		.word	.LANCHOR0
 606 0044 00000000 		.word	__stack_chk_guard
 607              		.cfi_endproc
 608              	.LFE260:
 609              		.size	go_forward, .-go_forward
 610              		.section	.text.calibrate_pos_right,"ax",%progbits
 611              		.align	1
 612              		.p2align 4,,15
 613              		.global	calibrate_pos_right
 614              		.syntax unified
 615              		.thumb
 616              		.thumb_func
 617              		.fpu fpv4-sp-d16
 618              		.type	calibrate_pos_right, %function
 619              	calibrate_pos_right:
 620              	.LFB263:
 621              		.loc 1 143 0
 622              		.cfi_startproc
 623              		@ args = 0, pretend = 0, frame = 8
 624              		@ frame_needed = 0, uses_anonymous_args = 0
 625 0000 10B5     		push	{r4, lr}
 626              		.cfi_def_cfa_offset 8
 627              		.cfi_offset 4, -8
ARM GAS  C:\Users\filip\AppData\Local\Temp\ccmkCy6H.s 			page 12


 628              		.cfi_offset 14, -4
 629              		.loc 1 144 0
 630 0002 274B     		ldr	r3, .L75
 631              		.loc 1 143 0
 632 0004 274C     		ldr	r4, .L75+4
 633              		.loc 1 144 0
 634 0006 1978     		ldrb	r1, [r3]	@ zero_extendqisi2
 635              		.loc 1 143 0
 636 0008 2368     		ldr	r3, [r4]
 637 000a 82B0     		sub	sp, sp, #8
 638              		.cfi_def_cfa_offset 16
 639              		.loc 1 144 0
 640 000c 0129     		cmp	r1, #1
 641              		.loc 1 143 0
 642 000e 0193     		str	r3, [sp, #4]
 643              		.loc 1 144 0
 644 0010 05D0     		beq	.L74
 645              		.loc 1 163 0
 646 0012 019A     		ldr	r2, [sp, #4]
 647 0014 2368     		ldr	r3, [r4]
 648 0016 9A42     		cmp	r2, r3
 649 0018 40D1     		bne	.L73
 650 001a 02B0     		add	sp, sp, #8
 651              		.cfi_remember_state
 652              		.cfi_def_cfa_offset 8
 653              		@ sp needed
 654 001c 10BD     		pop	{r4, pc}
 655              	.L74:
 656              		.cfi_restore_state
 657              		.loc 1 145 0
 658 001e 0846     		mov	r0, r1
 659 0020 FFF7FEFF 		bl	set_led
 660              	.LVL43:
 661              		.loc 1 147 0
 662 0024 0020     		movs	r0, #0
 663 0026 FFF7FEFF 		bl	right_motor_set_pos
 664              	.LVL44:
 665              		.loc 1 148 0
 666 002a 07E0     		b	.L66
 667              	.L67:
 668              		.loc 1 149 0
 669 002c 4FF4C870 		mov	r0, #400
 670 0030 FFF7FEFF 		bl	left_motor_set_speed
 671              	.LVL45:
 672              		.loc 1 150 0
 673 0034 4FF4FA70 		mov	r0, #500
 674 0038 FFF7FEFF 		bl	right_motor_set_speed
 675              	.LVL46:
 676              	.L66:
 677              		.loc 1 148 0
 678 003c FFF7FEFF 		bl	right_motor_get_pos
 679              	.LVL47:
 680 0040 0028     		cmp	r0, #0
 681 0042 B8BF     		it	lt
 682 0044 4042     		rsblt	r0, r0, #0
 683 0046 C728     		cmp	r0, #199
 684 0048 F0DD     		ble	.L67
ARM GAS  C:\Users\filip\AppData\Local\Temp\ccmkCy6H.s 			page 13


 685              		.loc 1 153 0
 686 004a 0020     		movs	r0, #0
 687 004c FFF7FEFF 		bl	right_motor_set_pos
 688              	.LVL48:
 689              		.loc 1 154 0
 690 0050 07E0     		b	.L68
 691              	.L69:
 692              		.loc 1 155 0
 693 0052 4FF4FA70 		mov	r0, #500
 694 0056 FFF7FEFF 		bl	left_motor_set_speed
 695              	.LVL49:
 696              		.loc 1 156 0
 697 005a 4FF4C870 		mov	r0, #400
 698 005e FFF7FEFF 		bl	right_motor_set_speed
 699              	.LVL50:
 700              	.L68:
 701              		.loc 1 154 0
 702 0062 FFF7FEFF 		bl	right_motor_get_pos
 703              	.LVL51:
 704 0066 0028     		cmp	r0, #0
 705 0068 B8BF     		it	lt
 706 006a 4042     		rsblt	r0, r0, #0
 707 006c 9528     		cmp	r0, #149
 708 006e F0DD     		ble	.L69
 709              		.loc 1 158 0
 710 0070 0021     		movs	r1, #0
 711 0072 0120     		movs	r0, #1
 712 0074 FFF7FEFF 		bl	set_led
 713              	.LVL52:
 714              		.loc 1 159 0
 715 0078 0020     		movs	r0, #0
 716 007a FFF7FEFF 		bl	right_motor_set_pos
 717              	.LVL53:
 718              		.loc 1 160 0
 719 007e 4FF4C870 		mov	r0, #400
 720 0082 FFF7FEFF 		bl	left_motor_set_speed
 721              	.LVL54:
 722              		.loc 1 161 0
 723 0086 019A     		ldr	r2, [sp, #4]
 724 0088 2368     		ldr	r3, [r4]
 725 008a 9A42     		cmp	r2, r3
 726 008c 06D1     		bne	.L73
 727 008e 4FF4C870 		mov	r0, #400
 728              		.loc 1 163 0
 729 0092 02B0     		add	sp, sp, #8
 730              		.cfi_remember_state
 731              		.cfi_def_cfa_offset 8
 732              		@ sp needed
 733 0094 BDE81040 		pop	{r4, lr}
 734              		.cfi_restore 14
 735              		.cfi_restore 4
 736              		.cfi_def_cfa_offset 0
 737              		.loc 1 161 0
 738 0098 FFF7FEBF 		b	right_motor_set_speed
 739              	.LVL55:
 740              	.L73:
 741              		.cfi_restore_state
ARM GAS  C:\Users\filip\AppData\Local\Temp\ccmkCy6H.s 			page 14


 742              		.loc 1 163 0
 743 009c FFF7FEFF 		bl	__stack_chk_fail
 744              	.LVL56:
 745              	.L76:
 746              		.align	2
 747              	.L75:
 748 00a0 00000000 		.word	.LANCHOR0
 749 00a4 00000000 		.word	__stack_chk_guard
 750              		.cfi_endproc
 751              	.LFE263:
 752              		.size	calibrate_pos_right, .-calibrate_pos_right
 753              		.section	.text.calibrate_pos_left,"ax",%progbits
 754              		.align	1
 755              		.p2align 4,,15
 756              		.global	calibrate_pos_left
 757              		.syntax unified
 758              		.thumb
 759              		.thumb_func
 760              		.fpu fpv4-sp-d16
 761              		.type	calibrate_pos_left, %function
 762              	calibrate_pos_left:
 763              	.LFB264:
 764              		.loc 1 166 0
 765              		.cfi_startproc
 766              		@ args = 0, pretend = 0, frame = 8
 767              		@ frame_needed = 0, uses_anonymous_args = 0
 768 0000 10B5     		push	{r4, lr}
 769              		.cfi_def_cfa_offset 8
 770              		.cfi_offset 4, -8
 771              		.cfi_offset 14, -4
 772              		.loc 1 167 0
 773 0002 274B     		ldr	r3, .L88
 774              		.loc 1 166 0
 775 0004 274C     		ldr	r4, .L88+4
 776              		.loc 1 167 0
 777 0006 1978     		ldrb	r1, [r3]	@ zero_extendqisi2
 778              		.loc 1 166 0
 779 0008 2368     		ldr	r3, [r4]
 780 000a 82B0     		sub	sp, sp, #8
 781              		.cfi_def_cfa_offset 16
 782              		.loc 1 167 0
 783 000c 0129     		cmp	r1, #1
 784              		.loc 1 166 0
 785 000e 0193     		str	r3, [sp, #4]
 786              		.loc 1 167 0
 787 0010 05D0     		beq	.L87
 788              		.loc 1 186 0
 789 0012 019A     		ldr	r2, [sp, #4]
 790 0014 2368     		ldr	r3, [r4]
 791 0016 9A42     		cmp	r2, r3
 792 0018 40D1     		bne	.L86
 793 001a 02B0     		add	sp, sp, #8
 794              		.cfi_remember_state
 795              		.cfi_def_cfa_offset 8
 796              		@ sp needed
 797 001c 10BD     		pop	{r4, pc}
 798              	.L87:
ARM GAS  C:\Users\filip\AppData\Local\Temp\ccmkCy6H.s 			page 15


 799              		.cfi_restore_state
 800              		.loc 1 168 0
 801 001e 0320     		movs	r0, #3
 802 0020 FFF7FEFF 		bl	set_led
 803              	.LVL57:
 804              		.loc 1 170 0
 805 0024 0020     		movs	r0, #0
 806 0026 FFF7FEFF 		bl	left_motor_set_pos
 807              	.LVL58:
 808              		.loc 1 171 0
 809 002a 07E0     		b	.L79
 810              	.L80:
 811              		.loc 1 172 0
 812 002c 4FF4FA70 		mov	r0, #500
 813 0030 FFF7FEFF 		bl	left_motor_set_speed
 814              	.LVL59:
 815              		.loc 1 173 0
 816 0034 4FF4C870 		mov	r0, #400
 817 0038 FFF7FEFF 		bl	right_motor_set_speed
 818              	.LVL60:
 819              	.L79:
 820              		.loc 1 171 0
 821 003c FFF7FEFF 		bl	left_motor_get_pos
 822              	.LVL61:
 823 0040 0028     		cmp	r0, #0
 824 0042 B8BF     		it	lt
 825 0044 4042     		rsblt	r0, r0, #0
 826 0046 C728     		cmp	r0, #199
 827 0048 F0DD     		ble	.L80
 828              		.loc 1 176 0
 829 004a 0020     		movs	r0, #0
 830 004c FFF7FEFF 		bl	left_motor_set_pos
 831              	.LVL62:
 832              		.loc 1 177 0
 833 0050 07E0     		b	.L81
 834              	.L82:
 835              		.loc 1 178 0
 836 0052 4FF4C870 		mov	r0, #400
 837 0056 FFF7FEFF 		bl	left_motor_set_speed
 838              	.LVL63:
 839              		.loc 1 179 0
 840 005a 4FF4FA70 		mov	r0, #500
 841 005e FFF7FEFF 		bl	right_motor_set_speed
 842              	.LVL64:
 843              	.L81:
 844              		.loc 1 177 0
 845 0062 FFF7FEFF 		bl	left_motor_get_pos
 846              	.LVL65:
 847 0066 0028     		cmp	r0, #0
 848 0068 B8BF     		it	lt
 849 006a 4042     		rsblt	r0, r0, #0
 850 006c 9528     		cmp	r0, #149
 851 006e F0DD     		ble	.L82
 852              		.loc 1 181 0
 853 0070 0021     		movs	r1, #0
 854 0072 0320     		movs	r0, #3
 855 0074 FFF7FEFF 		bl	set_led
ARM GAS  C:\Users\filip\AppData\Local\Temp\ccmkCy6H.s 			page 16


 856              	.LVL66:
 857              		.loc 1 182 0
 858 0078 0020     		movs	r0, #0
 859 007a FFF7FEFF 		bl	left_motor_set_pos
 860              	.LVL67:
 861              		.loc 1 183 0
 862 007e 4FF4C870 		mov	r0, #400
 863 0082 FFF7FEFF 		bl	left_motor_set_speed
 864              	.LVL68:
 865              		.loc 1 184 0
 866 0086 019A     		ldr	r2, [sp, #4]
 867 0088 2368     		ldr	r3, [r4]
 868 008a 9A42     		cmp	r2, r3
 869 008c 06D1     		bne	.L86
 870 008e 4FF4C870 		mov	r0, #400
 871              		.loc 1 186 0
 872 0092 02B0     		add	sp, sp, #8
 873              		.cfi_remember_state
 874              		.cfi_def_cfa_offset 8
 875              		@ sp needed
 876 0094 BDE81040 		pop	{r4, lr}
 877              		.cfi_restore 14
 878              		.cfi_restore 4
 879              		.cfi_def_cfa_offset 0
 880              		.loc 1 184 0
 881 0098 FFF7FEBF 		b	right_motor_set_speed
 882              	.LVL69:
 883              	.L86:
 884              		.cfi_restore_state
 885              		.loc 1 186 0
 886 009c FFF7FEFF 		bl	__stack_chk_fail
 887              	.LVL70:
 888              	.L89:
 889              		.align	2
 890              	.L88:
 891 00a0 00000000 		.word	.LANCHOR0
 892 00a4 00000000 		.word	__stack_chk_guard
 893              		.cfi_endproc
 894              	.LFE264:
 895              		.size	calibrate_pos_left, .-calibrate_pos_left
 896              		.section	.text.stop,"ax",%progbits
 897              		.align	1
 898              		.p2align 4,,15
 899              		.global	stop
 900              		.syntax unified
 901              		.thumb
 902              		.thumb_func
 903              		.fpu fpv4-sp-d16
 904              		.type	stop, %function
 905              	stop:
 906              	.LFB265:
 907              		.loc 1 189 0
 908              		.cfi_startproc
 909              		@ args = 0, pretend = 0, frame = 8
 910              		@ frame_needed = 0, uses_anonymous_args = 0
 911 0000 30B5     		push	{r4, r5, lr}
 912              		.cfi_def_cfa_offset 12
ARM GAS  C:\Users\filip\AppData\Local\Temp\ccmkCy6H.s 			page 17


 913              		.cfi_offset 4, -12
 914              		.cfi_offset 5, -8
 915              		.cfi_offset 14, -4
 916 0002 144D     		ldr	r5, .L95
 917              		.loc 1 190 0
 918 0004 144B     		ldr	r3, .L95+4
 919              		.loc 1 189 0
 920 0006 2A68     		ldr	r2, [r5]
 921 0008 83B0     		sub	sp, sp, #12
 922              		.cfi_def_cfa_offset 24
 923              		.loc 1 190 0
 924 000a 0024     		movs	r4, #0
 925              		.loc 1 191 0
 926 000c 2046     		mov	r0, r4
 927              		.loc 1 189 0
 928 000e 0192     		str	r2, [sp, #4]
 929              		.loc 1 190 0
 930 0010 1C70     		strb	r4, [r3]
 931              		.loc 1 191 0
 932 0012 FFF7FEFF 		bl	set_front_led
 933              	.LVL71:
 934              		.loc 1 192 0
 935 0016 2046     		mov	r0, r4
 936 0018 FFF7FEFF 		bl	set_body_led
 937              	.LVL72:
 938              		.loc 1 193 0
 939 001c 0121     		movs	r1, #1
 940 001e 0220     		movs	r0, #2
 941 0020 FFF7FEFF 		bl	set_led
 942              	.LVL73:
 943              		.loc 1 194 0
 944 0024 0D4B     		ldr	r3, .L95+8
 945              		.loc 1 195 0
 946 0026 2046     		mov	r0, r4
 947              		.loc 1 194 0
 948 0028 1C70     		strb	r4, [r3]
 949              		.loc 1 195 0
 950 002a FFF7FEFF 		bl	set_labyrinth
 951              	.LVL74:
 952              		.loc 1 196 0
 953 002e 2046     		mov	r0, r4
 954 0030 FFF7FEFF 		bl	set_state_celebrate
 955              	.LVL75:
 956              		.loc 1 197 0
 957 0034 2046     		mov	r0, r4
 958 0036 FFF7FEFF 		bl	left_motor_set_speed
 959              	.LVL76:
 960              		.loc 1 198 0
 961 003a 019A     		ldr	r2, [sp, #4]
 962 003c 2B68     		ldr	r3, [r5]
 963 003e 9A42     		cmp	r2, r3
 964 0040 05D1     		bne	.L94
 965 0042 2046     		mov	r0, r4
 966              		.loc 1 199 0
 967 0044 03B0     		add	sp, sp, #12
 968              		.cfi_remember_state
 969              		.cfi_def_cfa_offset 12
ARM GAS  C:\Users\filip\AppData\Local\Temp\ccmkCy6H.s 			page 18


 970              		@ sp needed
 971 0046 BDE83040 		pop	{r4, r5, lr}
 972              		.cfi_restore 14
 973              		.cfi_restore 5
 974              		.cfi_restore 4
 975              		.cfi_def_cfa_offset 0
 976              		.loc 1 198 0
 977 004a FFF7FEBF 		b	right_motor_set_speed
 978              	.LVL77:
 979              	.L94:
 980              		.cfi_restore_state
 981 004e FFF7FEFF 		bl	__stack_chk_fail
 982              	.LVL78:
 983              	.L96:
 984 0052 00BF     		.align	2
 985              	.L95:
 986 0054 00000000 		.word	__stack_chk_guard
 987 0058 00000000 		.word	.LANCHOR0
 988 005c 00000000 		.word	.LANCHOR1
 989              		.cfi_endproc
 990              	.LFE265:
 991              		.size	stop, .-stop
 992              		.section	.text.go_forward_step.part.1,"ax",%progbits
 993              		.align	1
 994              		.p2align 4,,15
 995              		.syntax unified
 996              		.thumb
 997              		.thumb_func
 998              		.fpu fpv4-sp-d16
 999              		.type	go_forward_step.part.1, %function
 1000              	go_forward_step.part.1:
 1001              	.LFB271:
 1002              		.loc 1 101 0
 1003              		.cfi_startproc
 1004              		@ args = 0, pretend = 0, frame = 8
 1005              		@ frame_needed = 0, uses_anonymous_args = 0
 1006 0000 30B5     		push	{r4, r5, lr}
 1007              		.cfi_def_cfa_offset 12
 1008              		.cfi_offset 4, -12
 1009              		.cfi_offset 5, -8
 1010              		.cfi_offset 14, -4
 1011 0002 194D     		ldr	r5, .L104
 1012 0004 83B0     		sub	sp, sp, #12
 1013              		.cfi_def_cfa_offset 24
 1014              		.loc 1 101 0
 1015 0006 2B68     		ldr	r3, [r5]
 1016 0008 0193     		str	r3, [sp, #4]
 1017              	.LBB7:
 1018              		.loc 1 103 0
 1019 000a FFF7FEFF 		bl	right_motor_get_pos
 1020              	.LVL79:
 1021              		.loc 1 104 0
 1022 000e 0121     		movs	r1, #1
 1023              		.loc 1 103 0
 1024 0010 0446     		mov	r4, r0
 1025              	.LVL80:
 1026              		.loc 1 104 0
ARM GAS  C:\Users\filip\AppData\Local\Temp\ccmkCy6H.s 			page 19


 1027 0012 0020     		movs	r0, #0
 1028              	.LVL81:
 1029 0014 FFF7FEFF 		bl	set_led
 1030              	.LVL82:
 1031              		.loc 1 103 0
 1032 0018 002C     		cmp	r4, #0
 1033 001a B8BF     		it	lt
 1034 001c 6442     		rsblt	r4, r4, #0
 1035              	.LVL83:
 1036 001e 04F5AF64 		add	r4, r4, #1400
 1037 0022 24B2     		sxth	r4, r4
 1038 0024 07E0     		b	.L98
 1039              	.L99:
 1040              		.loc 1 106 0
 1041 0026 4FF4C870 		mov	r0, #400
 1042 002a FFF7FEFF 		bl	left_motor_set_speed
 1043              	.LVL84:
 1044              		.loc 1 107 0
 1045 002e 4FF4C870 		mov	r0, #400
 1046 0032 FFF7FEFF 		bl	right_motor_set_speed
 1047              	.LVL85:
 1048              	.L98:
 1049              		.loc 1 105 0
 1050 0036 FFF7FEFF 		bl	right_motor_get_pos
 1051              	.LVL86:
 1052 003a 0028     		cmp	r0, #0
 1053 003c B8BF     		it	lt
 1054 003e 4042     		rsblt	r0, r0, #0
 1055 0040 A042     		cmp	r0, r4
 1056 0042 F0DB     		blt	.L99
 1057              		.loc 1 109 0
 1058 0044 0021     		movs	r1, #0
 1059 0046 0846     		mov	r0, r1
 1060 0048 FFF7FEFF 		bl	set_led
 1061              	.LVL87:
 1062              		.loc 1 110 0
 1063 004c 0020     		movs	r0, #0
 1064 004e FFF7FEFF 		bl	right_motor_set_pos
 1065              	.LVL88:
 1066              		.loc 1 111 0
 1067 0052 019A     		ldr	r2, [sp, #4]
 1068 0054 2B68     		ldr	r3, [r5]
 1069 0056 9A42     		cmp	r2, r3
 1070 0058 04D1     		bne	.L103
 1071              	.LBE7:
 1072              		.loc 1 113 0
 1073 005a 03B0     		add	sp, sp, #12
 1074              		.cfi_remember_state
 1075              		.cfi_def_cfa_offset 12
 1076              		@ sp needed
 1077 005c BDE83040 		pop	{r4, r5, lr}
 1078              		.cfi_restore 14
 1079              		.cfi_restore 5
 1080              		.cfi_restore 4
 1081              		.cfi_def_cfa_offset 0
 1082              	.LBB8:
 1083              		.loc 1 111 0
ARM GAS  C:\Users\filip\AppData\Local\Temp\ccmkCy6H.s 			page 20


 1084 0060 FFF7FEBF 		b	stop
 1085              	.LVL89:
 1086              	.L103:
 1087              		.cfi_restore_state
 1088 0064 FFF7FEFF 		bl	__stack_chk_fail
 1089              	.LVL90:
 1090              	.L105:
 1091              		.align	2
 1092              	.L104:
 1093 0068 00000000 		.word	__stack_chk_guard
 1094              	.LBE8:
 1095              		.cfi_endproc
 1096              	.LFE271:
 1097              		.size	go_forward_step.part.1, .-go_forward_step.part.1
 1098              		.section	.text.go_forward_step,"ax",%progbits
 1099              		.align	1
 1100              		.p2align 4,,15
 1101              		.global	go_forward_step
 1102              		.syntax unified
 1103              		.thumb
 1104              		.thumb_func
 1105              		.fpu fpv4-sp-d16
 1106              		.type	go_forward_step, %function
 1107              	go_forward_step:
 1108              	.LFB261:
 1109              		.loc 1 101 0
 1110              		.cfi_startproc
 1111              		@ args = 0, pretend = 0, frame = 8
 1112              		@ frame_needed = 0, uses_anonymous_args = 0
 1113 0000 00B5     		push	{lr}
 1114              		.cfi_def_cfa_offset 4
 1115              		.cfi_offset 14, -4
 1116              		.loc 1 102 0
 1117 0002 0C4A     		ldr	r2, .L113
 1118              		.loc 1 101 0
 1119 0004 0C4B     		ldr	r3, .L113+4
 1120              		.loc 1 102 0
 1121 0006 1278     		ldrb	r2, [r2]	@ zero_extendqisi2
 1122              		.loc 1 101 0
 1123 0008 1968     		ldr	r1, [r3]
 1124 000a 83B0     		sub	sp, sp, #12
 1125              		.cfi_def_cfa_offset 16
 1126              		.loc 1 102 0
 1127 000c 012A     		cmp	r2, #1
 1128              		.loc 1 101 0
 1129 000e 0191     		str	r1, [sp, #4]
 1130 0010 019A     		ldr	r2, [sp, #4]
 1131 0012 1B68     		ldr	r3, [r3]
 1132              		.loc 1 102 0
 1133 0014 04D0     		beq	.L112
 1134              		.loc 1 113 0
 1135 0016 9A42     		cmp	r2, r3
 1136 0018 09D1     		bne	.L111
 1137 001a 03B0     		add	sp, sp, #12
 1138              		.cfi_remember_state
 1139              		.cfi_def_cfa_offset 4
 1140              		@ sp needed
ARM GAS  C:\Users\filip\AppData\Local\Temp\ccmkCy6H.s 			page 21


 1141 001c 5DF804FB 		ldr	pc, [sp], #4
 1142              	.L112:
 1143              		.cfi_restore_state
 1144 0020 9A42     		cmp	r2, r3
 1145 0022 04D1     		bne	.L111
 1146 0024 03B0     		add	sp, sp, #12
 1147              		.cfi_remember_state
 1148              		.cfi_def_cfa_offset 4
 1149              		@ sp needed
 1150 0026 5DF804EB 		ldr	lr, [sp], #4
 1151              		.cfi_restore 14
 1152              		.cfi_def_cfa_offset 0
 1153 002a FFF7FEBF 		b	go_forward_step.part.1
 1154              	.LVL91:
 1155              	.L111:
 1156              		.cfi_restore_state
 1157 002e FFF7FEFF 		bl	__stack_chk_fail
 1158              	.LVL92:
 1159              	.L114:
 1160 0032 00BF     		.align	2
 1161              	.L113:
 1162 0034 00000000 		.word	.LANCHOR0
 1163 0038 00000000 		.word	__stack_chk_guard
 1164              		.cfi_endproc
 1165              	.LFE261:
 1166              		.size	go_forward_step, .-go_forward_step
 1167              		.section	.text.turn_angle,"ax",%progbits
 1168              		.align	1
 1169              		.p2align 4,,15
 1170              		.global	turn_angle
 1171              		.syntax unified
 1172              		.thumb
 1173              		.thumb_func
 1174              		.fpu fpv4-sp-d16
 1175              		.type	turn_angle, %function
 1176              	turn_angle:
 1177              	.LFB262:
 1178              		.loc 1 116 0
 1179              		.cfi_startproc
 1180              		@ args = 0, pretend = 0, frame = 8
 1181              		@ frame_needed = 0, uses_anonymous_args = 0
 1182              	.LVL93:
 1183 0000 2DE9F041 		push	{r4, r5, r6, r7, r8, lr}
 1184              		.cfi_def_cfa_offset 24
 1185              		.cfi_offset 4, -24
 1186              		.cfi_offset 5, -20
 1187              		.cfi_offset 6, -16
 1188              		.cfi_offset 7, -12
 1189              		.cfi_offset 8, -8
 1190              		.cfi_offset 14, -4
 1191              		.loc 1 118 0
 1192 0004 324F     		ldr	r7, .L131
 1193              		.loc 1 116 0
 1194 0006 334E     		ldr	r6, .L131+4
 1195              		.loc 1 118 0
 1196 0008 3D78     		ldrb	r5, [r7]	@ zero_extendqisi2
 1197              		.loc 1 116 0
ARM GAS  C:\Users\filip\AppData\Local\Temp\ccmkCy6H.s 			page 22


 1198 000a 3368     		ldr	r3, [r6]
 1199 000c 82B0     		sub	sp, sp, #8
 1200              		.cfi_def_cfa_offset 32
 1201              		.loc 1 118 0
 1202 000e 012D     		cmp	r5, #1
 1203              		.loc 1 116 0
 1204 0010 0193     		str	r3, [sp, #4]
 1205              	.LVL94:
 1206              		.loc 1 118 0
 1207 0012 06D0     		beq	.L129
 1208              	.LVL95:
 1209              	.L115:
 1210              		.loc 1 140 0
 1211 0014 019A     		ldr	r2, [sp, #4]
 1212 0016 3368     		ldr	r3, [r6]
 1213 0018 9A42     		cmp	r2, r3
 1214 001a 57D1     		bne	.L128
 1215 001c 02B0     		add	sp, sp, #8
 1216              		.cfi_remember_state
 1217              		.cfi_def_cfa_offset 24
 1218              		@ sp needed
 1219 001e BDE8F081 		pop	{r4, r5, r6, r7, r8, pc}
 1220              	.LVL96:
 1221              	.L129:
 1222              		.cfi_restore_state
 1223 0022 8046     		mov	r8, r0
 1224              		.loc 1 119 0
 1225 0024 0020     		movs	r0, #0
 1226              	.LVL97:
 1227 0026 FFF7FEFF 		bl	right_motor_set_pos
 1228              	.LVL98:
 1229              		.loc 1 117 0
 1230 002a 07EE908A 		vmov	s15, r8	@ int
 1231 002e 9FED2A7A 		vldr.32	s14, .L131+8
 1232 0032 F8EEE77A 		vcvt.f32.s32	s15, s15
 1233              		.loc 1 122 0
 1234 0036 2946     		mov	r1, r5
 1235              		.loc 1 117 0
 1236 0038 67EE877A 		vmul.f32	s15, s15, s14
 1237 003c FDEEE77A 		vcvt.s32.f32	s15, s15
 1238 0040 17EE904A 		vmov	r4, s15	@ int
 1239 0044 002C     		cmp	r4, #0
 1240 0046 B8BF     		it	lt
 1241 0048 6442     		rsblt	r4, r4, #0
 1242              		.loc 1 120 0
 1243 004a B8F1000F 		cmp	r8, #0
 1244 004e 24B2     		sxth	r4, r4
 1245 0050 22DB     		blt	.L130
 1246              		.loc 1 131 0
 1247 0052 2846     		mov	r0, r5
 1248 0054 FFF7FEFF 		bl	set_led
 1249              	.LVL99:
 1250              		.loc 1 133 0
 1251 0058 204D     		ldr	r5, .L131+12
 1252              		.loc 1 132 0
 1253 005a 06E0     		b	.L122
 1254              	.L123:
ARM GAS  C:\Users\filip\AppData\Local\Temp\ccmkCy6H.s 			page 23


 1255              		.loc 1 133 0
 1256 005c 2846     		mov	r0, r5
 1257 005e FFF7FEFF 		bl	right_motor_set_speed
 1258              	.LVL100:
 1259              		.loc 1 134 0
 1260 0062 4FF4C870 		mov	r0, #400
 1261 0066 FFF7FEFF 		bl	left_motor_set_speed
 1262              	.LVL101:
 1263              	.L122:
 1264              		.loc 1 132 0
 1265 006a FFF7FEFF 		bl	right_motor_get_pos
 1266              	.LVL102:
 1267 006e 0028     		cmp	r0, #0
 1268 0070 B8BF     		it	lt
 1269 0072 4042     		rsblt	r0, r0, #0
 1270 0074 A042     		cmp	r0, r4
 1271 0076 F1DB     		blt	.L123
 1272              		.loc 1 136 0
 1273 0078 0021     		movs	r1, #0
 1274 007a 0120     		movs	r0, #1
 1275 007c FFF7FEFF 		bl	set_led
 1276              	.LVL103:
 1277              	.L121:
 1278              	.LBB9:
 1279              	.LBB10:
 1280              		.loc 1 102 0
 1281 0080 3B78     		ldrb	r3, [r7]	@ zero_extendqisi2
 1282 0082 012B     		cmp	r3, #1
 1283 0084 C6D1     		bne	.L115
 1284 0086 019A     		ldr	r2, [sp, #4]
 1285 0088 3368     		ldr	r3, [r6]
 1286 008a 9A42     		cmp	r2, r3
 1287 008c 1ED1     		bne	.L128
 1288              	.LBE10:
 1289              	.LBE9:
 1290              		.loc 1 140 0
 1291 008e 02B0     		add	sp, sp, #8
 1292              		.cfi_remember_state
 1293              		.cfi_def_cfa_offset 24
 1294              		@ sp needed
 1295 0090 BDE8F041 		pop	{r4, r5, r6, r7, r8, lr}
 1296              		.cfi_restore 14
 1297              		.cfi_restore 8
 1298              		.cfi_restore 7
 1299              		.cfi_restore 6
 1300              		.cfi_restore 5
 1301              		.cfi_restore 4
 1302              		.cfi_def_cfa_offset 0
 1303              	.LBB12:
 1304              	.LBB11:
 1305 0094 FFF7FEBF 		b	go_forward_step.part.1
 1306              	.LVL104:
 1307              	.L130:
 1308              		.cfi_restore_state
 1309              	.LBE11:
 1310              	.LBE12:
 1311              		.loc 1 122 0
ARM GAS  C:\Users\filip\AppData\Local\Temp\ccmkCy6H.s 			page 24


 1312 0098 0320     		movs	r0, #3
 1313 009a FFF7FEFF 		bl	set_led
 1314              	.LVL105:
 1315              		.loc 1 124 0
 1316 009e 6FF4C873 		mvn	r3, #400
 1317 00a2 1D44     		add	r5, r5, r3
 1318              		.loc 1 123 0
 1319 00a4 06E0     		b	.L119
 1320              	.L120:
 1321              		.loc 1 124 0
 1322 00a6 2846     		mov	r0, r5
 1323 00a8 FFF7FEFF 		bl	left_motor_set_speed
 1324              	.LVL106:
 1325              		.loc 1 125 0
 1326 00ac 4FF4C870 		mov	r0, #400
 1327 00b0 FFF7FEFF 		bl	right_motor_set_speed
 1328              	.LVL107:
 1329              	.L119:
 1330              		.loc 1 123 0
 1331 00b4 FFF7FEFF 		bl	right_motor_get_pos
 1332              	.LVL108:
 1333 00b8 0028     		cmp	r0, #0
 1334 00ba B8BF     		it	lt
 1335 00bc 4042     		rsblt	r0, r0, #0
 1336 00be A042     		cmp	r0, r4
 1337 00c0 F1DB     		blt	.L120
 1338              		.loc 1 127 0
 1339 00c2 0021     		movs	r1, #0
 1340 00c4 0320     		movs	r0, #3
 1341 00c6 FFF7FEFF 		bl	set_led
 1342              	.LVL109:
 1343 00ca D9E7     		b	.L121
 1344              	.L128:
 1345              		.loc 1 140 0
 1346 00cc FFF7FEFF 		bl	__stack_chk_fail
 1347              	.LVL110:
 1348              	.L132:
 1349              		.align	2
 1350              	.L131:
 1351 00d0 00000000 		.word	.LANCHOR0
 1352 00d4 00000000 		.word	__stack_chk_guard
 1353 00d8 A01AE740 		.word	1088887456
 1354 00dc 70FEFFFF 		.word	-400
 1355              		.cfi_endproc
 1356              	.LFE262:
 1357              		.size	turn_angle, .-turn_angle
 1358              		.section	.text.start,"ax",%progbits
 1359              		.align	1
 1360              		.p2align 4,,15
 1361              		.global	start
 1362              		.syntax unified
 1363              		.thumb
 1364              		.thumb_func
 1365              		.fpu fpv4-sp-d16
 1366              		.type	start, %function
 1367              	start:
 1368              	.LFB266:
ARM GAS  C:\Users\filip\AppData\Local\Temp\ccmkCy6H.s 			page 25


 1369              		.loc 1 202 0
 1370              		.cfi_startproc
 1371              		@ args = 0, pretend = 0, frame = 8
 1372              		@ frame_needed = 0, uses_anonymous_args = 0
 1373 0000 10B5     		push	{r4, lr}
 1374              		.cfi_def_cfa_offset 8
 1375              		.cfi_offset 4, -8
 1376              		.cfi_offset 14, -4
 1377 0002 0B4C     		ldr	r4, .L138
 1378              		.loc 1 203 0
 1379 0004 0B4A     		ldr	r2, .L138+4
 1380              		.loc 1 202 0
 1381 0006 2368     		ldr	r3, [r4]
 1382 0008 82B0     		sub	sp, sp, #8
 1383              		.cfi_def_cfa_offset 16
 1384              		.loc 1 202 0
 1385 000a 0193     		str	r3, [sp, #4]
 1386              		.loc 1 203 0
 1387 000c 0123     		movs	r3, #1
 1388              		.loc 1 204 0
 1389 000e 1846     		mov	r0, r3
 1390              		.loc 1 203 0
 1391 0010 1370     		strb	r3, [r2]
 1392              		.loc 1 204 0
 1393 0012 FFF7FEFF 		bl	set_front_led
 1394              	.LVL111:
 1395              		.loc 1 205 0
 1396 0016 019A     		ldr	r2, [sp, #4]
 1397 0018 2368     		ldr	r3, [r4]
 1398 001a 9A42     		cmp	r2, r3
 1399 001c 06D1     		bne	.L137
 1400 001e 0021     		movs	r1, #0
 1401 0020 0220     		movs	r0, #2
 1402              		.loc 1 206 0
 1403 0022 02B0     		add	sp, sp, #8
 1404              		.cfi_remember_state
 1405              		.cfi_def_cfa_offset 8
 1406              		@ sp needed
 1407 0024 BDE81040 		pop	{r4, lr}
 1408              		.cfi_restore 14
 1409              		.cfi_restore 4
 1410              		.cfi_def_cfa_offset 0
 1411              		.loc 1 205 0
 1412 0028 FFF7FEBF 		b	set_led
 1413              	.LVL112:
 1414              	.L137:
 1415              		.cfi_restore_state
 1416 002c FFF7FEFF 		bl	__stack_chk_fail
 1417              	.LVL113:
 1418              	.L139:
 1419              		.align	2
 1420              	.L138:
 1421 0030 00000000 		.word	__stack_chk_guard
 1422 0034 00000000 		.word	.LANCHOR0
 1423              		.cfi_endproc
 1424              	.LFE266:
 1425              		.size	start, .-start
ARM GAS  C:\Users\filip\AppData\Local\Temp\ccmkCy6H.s 			page 26


 1426              		.section	.text.get_state_motor,"ax",%progbits
 1427              		.align	1
 1428              		.p2align 4,,15
 1429              		.global	get_state_motor
 1430              		.syntax unified
 1431              		.thumb
 1432              		.thumb_func
 1433              		.fpu fpv4-sp-d16
 1434              		.type	get_state_motor, %function
 1435              	get_state_motor:
 1436              	.LFB267:
 1437              		.loc 1 209 0
 1438              		.cfi_startproc
 1439              		@ args = 0, pretend = 0, frame = 8
 1440              		@ frame_needed = 0, uses_anonymous_args = 0
 1441 0000 00B5     		push	{lr}
 1442              		.cfi_def_cfa_offset 4
 1443              		.cfi_offset 14, -4
 1444 0002 074B     		ldr	r3, .L144
 1445              		.loc 1 210 0
 1446 0004 0749     		ldr	r1, .L144+4
 1447              		.loc 1 209 0
 1448 0006 1A68     		ldr	r2, [r3]
 1449              		.loc 1 211 0
 1450 0008 0878     		ldrb	r0, [r1]	@ zero_extendqisi2
 1451              		.loc 1 209 0
 1452 000a 83B0     		sub	sp, sp, #12
 1453              		.cfi_def_cfa_offset 16
 1454              		.loc 1 209 0
 1455 000c 0192     		str	r2, [sp, #4]
 1456              		.loc 1 211 0
 1457 000e 019A     		ldr	r2, [sp, #4]
 1458 0010 1B68     		ldr	r3, [r3]
 1459 0012 9A42     		cmp	r2, r3
 1460 0014 02D1     		bne	.L143
 1461 0016 03B0     		add	sp, sp, #12
 1462              		.cfi_remember_state
 1463              		.cfi_def_cfa_offset 4
 1464              		@ sp needed
 1465 0018 5DF804FB 		ldr	pc, [sp], #4
 1466              	.L143:
 1467              		.cfi_restore_state
 1468 001c FFF7FEFF 		bl	__stack_chk_fail
 1469              	.LVL114:
 1470              	.L145:
 1471              		.align	2
 1472              	.L144:
 1473 0020 00000000 		.word	__stack_chk_guard
 1474 0024 00000000 		.word	.LANCHOR0
 1475              		.cfi_endproc
 1476              	.LFE267:
 1477              		.size	get_state_motor, .-get_state_motor
 1478              		.section	.text.celebrate,"ax",%progbits
 1479              		.align	1
 1480              		.p2align 4,,15
 1481              		.global	celebrate
 1482              		.syntax unified
ARM GAS  C:\Users\filip\AppData\Local\Temp\ccmkCy6H.s 			page 27


 1483              		.thumb
 1484              		.thumb_func
 1485              		.fpu fpv4-sp-d16
 1486              		.type	celebrate, %function
 1487              	celebrate:
 1488              	.LFB268:
 1489              		.loc 1 214 0
 1490              		.cfi_startproc
 1491              		@ args = 0, pretend = 0, frame = 8
 1492              		@ frame_needed = 0, uses_anonymous_args = 0
 1493 0000 70B5     		push	{r4, r5, r6, lr}
 1494              		.cfi_def_cfa_offset 16
 1495              		.cfi_offset 4, -16
 1496              		.cfi_offset 5, -12
 1497              		.cfi_offset 6, -8
 1498              		.cfi_offset 14, -4
 1499 0002 1E4E     		ldr	r6, .L155
 1500              	.LBB13:
 1501              	.LBB14:
 1502              		.loc 1 29 0
 1503 0004 1E4D     		ldr	r5, .L155+4
 1504              	.LBE14:
 1505              	.LBE13:
 1506              		.loc 1 214 0
 1507 0006 3368     		ldr	r3, [r6]
 1508 0008 82B0     		sub	sp, sp, #8
 1509              		.cfi_def_cfa_offset 24
 1510              		.loc 1 215 0
 1511 000a 0020     		movs	r0, #0
 1512              		.loc 1 214 0
 1513 000c 0193     		str	r3, [sp, #4]
 1514              		.loc 1 216 0
 1515 000e 40F62724 		movw	r4, #2599
 1516              		.loc 1 215 0
 1517 0012 FFF7FEFF 		bl	right_motor_set_pos
 1518              	.LVL115:
 1519              		.loc 1 216 0
 1520 0016 04E0     		b	.L147
 1521              	.L148:
 1522              		.loc 1 218 0
 1523 0018 0022     		movs	r2, #0
 1524 001a 1146     		mov	r1, r2
 1525 001c 0D20     		movs	r0, #13
 1526 001e FFF7FEFF 		bl	playMelody
 1527              	.LVL116:
 1528              	.L147:
 1529              		.loc 1 216 0
 1530 0022 FFF7FEFF 		bl	right_motor_get_pos
 1531              	.LVL117:
 1532 0026 0028     		cmp	r0, #0
 1533 0028 B8BF     		it	lt
 1534 002a 4042     		rsblt	r0, r0, #0
 1535 002c A042     		cmp	r0, r4
 1536 002e 05DC     		bgt	.L153
 1537              	.LBB16:
 1538              	.LBB15:
 1539              		.loc 1 29 0
ARM GAS  C:\Users\filip\AppData\Local\Temp\ccmkCy6H.s 			page 28


 1540 0030 2B78     		ldrb	r3, [r5]	@ zero_extendqisi2
 1541 0032 012B     		cmp	r3, #1
 1542 0034 F0D1     		bne	.L148
 1543 0036 FFF7FEFF 		bl	turn.part.0
 1544              	.LVL118:
 1545 003a EDE7     		b	.L148
 1546              	.L153:
 1547              	.LBE15:
 1548              	.LBE16:
 1549              		.loc 1 220 0
 1550 003c FFF7FEFF 		bl	stopCurrentMelody
 1551              	.LVL119:
 1552              		.loc 1 221 0
 1553 0040 0020     		movs	r0, #0
 1554 0042 FFF7FEFF 		bl	set_body_led
 1555              	.LVL120:
 1556              		.loc 1 222 0
 1557 0046 0020     		movs	r0, #0
 1558 0048 FFF7FEFF 		bl	set_state_celebrate
 1559              	.LVL121:
 1560              		.loc 1 223 0
 1561 004c 0020     		movs	r0, #0
 1562 004e FFF7FEFF 		bl	set_labyrinth
 1563              	.LVL122:
 1564              		.loc 1 224 0
 1565 0052 0020     		movs	r0, #0
 1566 0054 FFF7FEFF 		bl	left_motor_set_speed
 1567              	.LVL123:
 1568              		.loc 1 225 0
 1569 0058 0020     		movs	r0, #0
 1570 005a FFF7FEFF 		bl	right_motor_set_speed
 1571              	.LVL124:
 1572              		.loc 1 227 0
 1573 005e 019A     		ldr	r2, [sp, #4]
 1574 0060 3368     		ldr	r3, [r6]
 1575              		.loc 1 226 0
 1576 0062 0849     		ldr	r1, .L155+8
 1577 0064 0120     		movs	r0, #1
 1578              		.loc 1 227 0
 1579 0066 9A42     		cmp	r2, r3
 1580              		.loc 1 226 0
 1581 0068 0870     		strb	r0, [r1]
 1582              		.loc 1 227 0
 1583 006a 05D1     		bne	.L154
 1584 006c 0020     		movs	r0, #0
 1585              		.loc 1 228 0
 1586 006e 02B0     		add	sp, sp, #8
 1587              		.cfi_remember_state
 1588              		.cfi_def_cfa_offset 16
 1589              		@ sp needed
 1590 0070 BDE87040 		pop	{r4, r5, r6, lr}
 1591              		.cfi_restore 14
 1592              		.cfi_restore 6
 1593              		.cfi_restore 5
 1594              		.cfi_restore 4
 1595              		.cfi_def_cfa_offset 0
 1596              		.loc 1 227 0
ARM GAS  C:\Users\filip\AppData\Local\Temp\ccmkCy6H.s 			page 29


 1597 0074 FFF7FEBF 		b	right_motor_set_pos
 1598              	.LVL125:
 1599              	.L154:
 1600              		.cfi_restore_state
 1601 0078 FFF7FEFF 		bl	__stack_chk_fail
 1602              	.LVL126:
 1603              	.L156:
 1604              		.align	2
 1605              	.L155:
 1606 007c 00000000 		.word	__stack_chk_guard
 1607 0080 00000000 		.word	.LANCHOR0
 1608 0084 00000000 		.word	.LANCHOR1
 1609              		.cfi_endproc
 1610              	.LFE268:
 1611              		.size	celebrate, .-celebrate
 1612              		.section	.text.get_come_home,"ax",%progbits
 1613              		.align	1
 1614              		.p2align 4,,15
 1615              		.global	get_come_home
 1616              		.syntax unified
 1617              		.thumb
 1618              		.thumb_func
 1619              		.fpu fpv4-sp-d16
 1620              		.type	get_come_home, %function
 1621              	get_come_home:
 1622              	.LFB269:
 1623              		.loc 1 230 0
 1624              		.cfi_startproc
 1625              		@ args = 0, pretend = 0, frame = 8
 1626              		@ frame_needed = 0, uses_anonymous_args = 0
 1627 0000 00B5     		push	{lr}
 1628              		.cfi_def_cfa_offset 4
 1629              		.cfi_offset 14, -4
 1630 0002 074B     		ldr	r3, .L161
 1631              		.loc 1 231 0
 1632 0004 0749     		ldr	r1, .L161+4
 1633              		.loc 1 230 0
 1634 0006 1A68     		ldr	r2, [r3]
 1635              		.loc 1 232 0
 1636 0008 0878     		ldrb	r0, [r1]	@ zero_extendqisi2
 1637              		.loc 1 230 0
 1638 000a 83B0     		sub	sp, sp, #12
 1639              		.cfi_def_cfa_offset 16
 1640              		.loc 1 230 0
 1641 000c 0192     		str	r2, [sp, #4]
 1642              		.loc 1 232 0
 1643 000e 019A     		ldr	r2, [sp, #4]
 1644 0010 1B68     		ldr	r3, [r3]
 1645 0012 9A42     		cmp	r2, r3
 1646 0014 02D1     		bne	.L160
 1647 0016 03B0     		add	sp, sp, #12
 1648              		.cfi_remember_state
 1649              		.cfi_def_cfa_offset 4
 1650              		@ sp needed
 1651 0018 5DF804FB 		ldr	pc, [sp], #4
 1652              	.L160:
 1653              		.cfi_restore_state
ARM GAS  C:\Users\filip\AppData\Local\Temp\ccmkCy6H.s 			page 30


 1654 001c FFF7FEFF 		bl	__stack_chk_fail
 1655              	.LVL127:
 1656              	.L162:
 1657              		.align	2
 1658              	.L161:
 1659 0020 00000000 		.word	__stack_chk_guard
 1660 0024 00000000 		.word	.LANCHOR1
 1661              		.cfi_endproc
 1662              	.LFE269:
 1663              		.size	get_come_home, .-get_come_home
 1664              		.section	.bss.come_home,"aw",%nobits
 1665              		.set	.LANCHOR1,. + 0
 1666              		.type	come_home, %object
 1667              		.size	come_home, 1
 1668              	come_home:
 1669 0000 00       		.space	1
 1670              		.section	.bss.state_motor,"aw",%nobits
 1671              		.set	.LANCHOR0,. + 0
 1672              		.type	state_motor, %object
 1673              		.size	state_motor, 1
 1674              	state_motor:
 1675 0000 00       		.space	1
 1676              		.text
 1677              	.Letext0:
 1678              		.file 2 "c:\\users\\filip\\onedrive\\bureau\\eclipse_e-puck2\\tools\\gcc-arm-none-eabi-7-2017-q4-m
 1679              		.file 3 "c:\\users\\filip\\onedrive\\bureau\\eclipse_e-puck2\\tools\\gcc-arm-none-eabi-7-2017-q4-m
 1680              		.file 4 "c:\\users\\filip\\onedrive\\bureau\\eclipse_e-puck2\\tools\\gcc-arm-none-eabi-7-2017-q4-m
 1681              		.file 5 "c:\\users\\filip\\onedrive\\bureau\\eclipse_e-puck2\\tools\\gcc-arm-none-eabi-7-2017-q4-m
 1682              		.file 6 "c:\\users\\filip\\onedrive\\bureau\\eclipse_e-puck2\\tools\\gcc-arm-none-eabi-7-2017-q4-m
 1683              		.file 7 "c:\\users\\filip\\onedrive\\bureau\\eclipse_e-puck2\\tools\\gcc-arm-none-eabi-7-2017-q4-m
 1684              		.file 8 "c:\\users\\filip\\onedrive\\bureau\\eclipse_e-puck2\\tools\\gcc-arm-none-eabi-7-2017-q4-m
 1685              		.file 9 "../../lib/e-puck2_main-processor/ChibiOS//os/rt/ports/ARMCMx/compilers/GCC/chtypes.h"
 1686              		.file 10 "../../lib/e-puck2_main-processor/ChibiOS//os/rt/include/chsystypes.h"
 1687              		.file 11 "../../lib/e-puck2_main-processor/ChibiOS//os/rt/include/chschd.h"
 1688              		.file 12 "../../lib/e-puck2_main-processor/ChibiOS//os/ext/CMSIS/include/core_cm4.h"
 1689              		.file 13 "../../lib/e-puck2_main-processor/ChibiOS//os/ext/CMSIS/ST/system_stm32f4xx.h"
 1690              		.file 14 "../../lib/e-puck2_main-processor/ChibiOS//os/ext/CMSIS/ST/stm32f407xx.h"
 1691              		.file 15 "../../lib/e-puck2_main-processor/ChibiOS//os/rt/ports/ARMCMx/chcore.h"
 1692              		.file 16 "../../lib/e-puck2_main-processor/ChibiOS//os/rt/ports/ARMCMx/chcore_v7m.h"
 1693              		.file 17 "../../lib/e-puck2_main-processor/ChibiOS//os/rt/include/chdebug.h"
 1694              		.file 18 "../../lib/e-puck2_main-processor/ChibiOS//os/rt/include/chtm.h"
 1695              		.file 19 "../../lib/e-puck2_main-processor/ChibiOS//os/rt/include/chstats.h"
 1696              		.file 20 "../../lib/e-puck2_main-processor/ChibiOS//os/rt/include/chsem.h"
 1697              		.file 21 "../../lib/e-puck2_main-processor/ChibiOS//os/rt/include/chmtx.h"
 1698              		.file 22 "../../lib/e-puck2_main-processor/ChibiOS//os/rt/include/chregistry.h"
 1699              		.file 23 "../../lib/e-puck2_main-processor/ChibiOS//os/rt/include/chevents.h"
 1700              		.file 24 "../../lib/e-puck2_main-processor/ChibiOS//os/rt/include/chqueues.h"
 1701              		.file 25 "../../lib/e-puck2_main-processor/ChibiOS//os/hal/ports/STM32/STM32F4xx/stm32_dma.h"
 1702              		.file 26 "../../lib/e-puck2_main-processor/ChibiOS//os/hal/include/hal_ioblock.h"
 1703              		.file 27 "../../lib/e-puck2_main-processor/ChibiOS//os/hal/ports/STM32/LLD/GPIOv2/pal_lld.h"
 1704              		.file 28 "../../lib/e-puck2_main-processor/ChibiOS//os/hal/include/adc.h"
 1705              		.file 29 "../../lib/e-puck2_main-processor/ChibiOS//os/hal/ports/STM32/STM32F4xx/adc_lld.h"
 1706              		.file 30 "../../lib/e-puck2_main-processor/ChibiOS//os/hal/include/can.h"
 1707              		.file 31 "../../lib/e-puck2_main-processor/ChibiOS//os/hal/ports/STM32/LLD/can_lld.h"
 1708              		.file 32 "../../lib/e-puck2_main-processor/ChibiOS//os/hal/include/dac.h"
 1709              		.file 33 "../../lib/e-puck2_main-processor/ChibiOS//os/hal/ports/STM32/LLD/DACv1/dac_lld.h"
 1710              		.file 34 "../../lib/e-puck2_main-processor/ChibiOS//os/hal/include/ext.h"
ARM GAS  C:\Users\filip\AppData\Local\Temp\ccmkCy6H.s 			page 31


 1711              		.file 35 "../../lib/e-puck2_main-processor/ChibiOS//os/hal/ports/STM32/LLD/ext_lld.h"
 1712              		.file 36 "../../lib/e-puck2_main-processor/ChibiOS//os/hal/include/gpt.h"
 1713              		.file 37 "../../lib/e-puck2_main-processor/ChibiOS//os/hal/ports/STM32/LLD/TIMv1/gpt_lld.h"
 1714              		.file 38 "../../lib/e-puck2_main-processor/ChibiOS//os/hal/ports/STM32/LLD/TIMv1/stm32_tim.h"
 1715              		.file 39 "../../lib/e-puck2_main-processor/ChibiOS//os/hal/include/i2c.h"
 1716              		.file 40 "../../lib/e-puck2_main-processor/ChibiOS//os/hal/ports/STM32/LLD/I2Cv1/i2c_lld.h"
 1717              		.file 41 "../../lib/e-puck2_main-processor/ChibiOS//os/hal/include/i2s.h"
 1718              		.file 42 "../../lib/e-puck2_main-processor/ChibiOS//os/hal/ports/STM32/LLD/SPIv1/i2s_lld.h"
 1719              		.file 43 "../../lib/e-puck2_main-processor/ChibiOS//os/hal/include/pwm.h"
 1720              		.file 44 "../../lib/e-puck2_main-processor/ChibiOS//os/hal/ports/STM32/LLD/TIMv1/pwm_lld.h"
 1721              		.file 45 "../../lib/e-puck2_main-processor/ChibiOS//os/hal/include/serial.h"
 1722              		.file 46 "../../lib/e-puck2_main-processor/ChibiOS//os/hal/ports/STM32/LLD/USARTv1/serial_lld.h"
 1723              		.file 47 "../../lib/e-puck2_main-processor/ChibiOS//os/hal/include/sdc.h"
 1724              		.file 48 "../../lib/e-puck2_main-processor/ChibiOS//os/hal/ports/STM32/LLD/sdc_lld.h"
 1725              		.file 49 "../../lib/e-puck2_main-processor/ChibiOS//os/hal/include/spi.h"
 1726              		.file 50 "../../lib/e-puck2_main-processor/ChibiOS//os/hal/ports/STM32/LLD/SPIv1/spi_lld.h"
 1727              		.file 51 "../../lib/e-puck2_main-processor/ChibiOS//os/hal/include/usb.h"
 1728              		.file 52 "../../lib/e-puck2_main-processor/ChibiOS//os/hal/ports/STM32/LLD/OTGv1/usb_lld.h"
 1729              		.file 53 "../../lib/e-puck2_main-processor/ChibiOS//os/hal/ports/STM32/LLD/OTGv1/stm32_otg.h"
 1730              		.file 54 "../../lib/e-puck2_main-processor/src/leds.h"
 1731              		.file 55 "../../lib/e-puck2_main-processor/src/audio/play_melody.h"
 1732              		.file 56 "../../lib/e-puck2_main-processor/src/motors.h"
 1733              		.file 57 "./audio_processing.h"